	.arch armv5t
	.fpu softvfp
	.eabi_attribute 20, 1
	.eabi_attribute 21, 1
	.eabi_attribute 23, 3
	.eabi_attribute 24, 1
	.eabi_attribute 25, 1
	.eabi_attribute 26, 2
	.eabi_attribute 30, 6
	.eabi_attribute 18, 2
	.code	16
	.file	"soundux.cpp"
	.text
.Ltext0:
	.align	2
	.code	16
	.thumb_func
	.type	_ZL15sounduxmemset32Pvmm, %function
_ZL15sounduxmemset32Pvmm:
	.fnstart
.LFB0:
	.file 1 "Z:/AntSnes/snes9x_asm_optimized/soundux.cpp"
	.loc 1 65 0
	.save	{r7, lr}
	push	{r7, lr}
.LCFI0:
	sub	sp, sp, #24
.LCFI1:
	add	r7, sp, #0
.LCFI2:
	str	r0, [r7, #12]
	str	r1, [r7, #8]
	str	r2, [r7, #4]
.LBB2:
	.loc 1 66 0
	ldr	r3, [r7, #12]
	str	r3, [r7, #20]
	.loc 1 67 0
	b	.L2
.L3:
	ldr	r3, [r7, #20]
	ldr	r2, [r7, #8]
	str	r2, [r3]
	ldr	r3, [r7, #20]
	add	r3, r3, #4
	str	r3, [r7, #20]
	ldr	r3, [r7, #4]
	sub	r3, r3, #1
	str	r3, [r7, #4]
.L2:
	ldr	r3, [r7, #4]
	sub	r2, r3, #1
	sbc	r3, r3, r2
	lsl	r3, r3, #24
	lsr	r3, r3, #24
	cmp	r3, #0
	bne	.L3
.LBE2:
	.loc 1 68 0
	mov	sp, r7
	add	sp, sp, #24
	@ sp needed for prologue
	pop	{r7, pc}
.LFE0:
	.cantunwind
	.fnend
	.size	_ZL15sounduxmemset32Pvmm, .-_ZL15sounduxmemset32Pvmm
	.align	2
	.code	16
	.thumb_func
	.type	_ZL15S9xSetSoundMuteh, %function
_ZL15S9xSetSoundMuteh:
	.fnstart
.LFB9:
	.file 2 "Z:/AntSnes/snes9x_asm_optimized/soundux.h"
	.loc 2 202 0
	.save	{r7, lr}
	push	{r7, lr}
.LCFI3:
	sub	sp, sp, #8
.LCFI4:
	add	r7, sp, #0
.LCFI5:
	mov	r2, r0
	add	r3, r7, #7
	strb	r2, [r3]
	.loc 2 204 0
	ldr	r3, .L7
	add	r2, r7, #7
	ldrb	r2, [r2]
	strb	r2, [r3, #5]
	.loc 2 206 0
	mov	sp, r7
	add	sp, sp, #8
	@ sp needed for prologue
	pop	{r7, pc}
.L8:
	.align	2
.L7:
	.word	so
.LFE9:
	.cantunwind
	.fnend
	.size	_ZL15S9xSetSoundMuteh, .-_ZL15S9xSetSoundMuteh
	.align	2
	.code	16
	.thumb_func
	.type	_ZL13S9xSetEnvRateP7Channelmiij, %function
_ZL13S9xSetEnvRateP7Channelmiij:
	.fnstart
.LFB10:
	.loc 2 209 0
	.save	{r7, lr}
	push	{r7, lr}
.LCFI6:
	sub	sp, sp, #16
.LCFI7:
	add	r7, sp, #0
.LCFI8:
	str	r0, [r7, #12]
	str	r1, [r7, #8]
	str	r2, [r7, #4]
	str	r3, [r7]
	.loc 2 210 0
	ldr	r3, [r7]
	lsl	r3, r3, #16
	lsr	r2, r3, #16
	ldr	r3, [r7, #12]
	strh	r2, [r3, #36]
	.loc 2 212 0
	ldr	r3, [r7, #8]
	add	r3, r3, #1
	bne	.L10
	.loc 2 214 0
	ldr	r3, [r7, #12]
	mov	r2, #0
	str	r2, [r3, #48]
	.loc 2 215 0
	mov	r3, #0
	str	r3, [r7, #8]
	b	.L11
.L10:
	.loc 2 218 0
	ldr	r3, [r7, #12]
	ldr	r2, [r7, #4]
	str	r2, [r3, #48]
.L11:
	.loc 2 221 0
	ldr	r3, [r7, #8]
	cmp	r3, #0
	beq	.L12
	ldr	r3, .L23
	ldr	r3, [r3]
	cmp	r3, #0
	bne	.L13
.L12:
	.loc 2 222 0
	ldr	r3, [r7, #12]
	mov	r2, #0
	str	r2, [r3, #44]
	.loc 2 221 0
	b	.L22
.L13:
	.loc 2 225 0
	ldr	r3, [r7, #24]
	lsr	r3, r3, #28
	cmp	r3, #5
	bhi	.L22
	lsl	r2, r3, #2
	ldr	r3, .L23+4
	add	r3, r2, r3
	ldr	r3, [r3]
	mov	pc, r3
	.section	.rodata
	.align	2
.L21:
	.word	.L15
	.word	.L16
	.word	.L17
	.word	.L18
	.word	.L19
	.word	.L20
	.text
.L15:
	.loc 2 227 0
	ldr	r2, [r7, #12]
	mov	r3, #156
	ldrb	r3, [r2, r3]
	mov	r2, r3
	ldr	r3, [r7, #12]
	ldr	r0, [r3]
	ldr	r1, .L23+8
	mov	r3, r2
	lsl	r3, r3, #2
	add	r3, r3, r2
	lsl	r3, r3, #1
	add	r3, r3, r0
	lsl	r3, r3, #2
	ldr	r2, [r3, r1]
	ldr	r3, [r7, #12]
	str	r2, [r3, #44]
	.loc 2 228 0
	b	.L22
.L16:
	.loc 2 231 0
	ldr	r2, [r7, #12]
	mov	r3, #157
	ldrb	r3, [r2, r3]
	mov	r2, r3
	ldr	r3, [r7, #12]
	ldr	r0, [r3]
	ldr	r1, .L23+12
	mov	r3, r2
	lsl	r3, r3, #2
	add	r3, r3, r2
	lsl	r3, r3, #1
	add	r3, r3, r0
	lsl	r3, r3, #2
	ldr	r2, [r3, r1]
	ldr	r3, [r7, #12]
	str	r2, [r3, #44]
	.loc 2 232 0
	b	.L22
.L17:
	.loc 2 235 0
	ldr	r2, [r7, #12]
	mov	r3, #158
	ldrb	r3, [r2, r3]
	mov	r2, r3
	ldr	r3, [r7, #12]
	ldr	r0, [r3]
	ldr	r1, .L23+16
	mov	r3, r2
	lsl	r3, r3, #2
	add	r3, r3, r2
	lsl	r3, r3, #1
	add	r3, r3, r0
	lsl	r3, r3, #2
	ldr	r2, [r3, r1]
	ldr	r3, [r7, #12]
	str	r2, [r3, #44]
	.loc 2 236 0
	b	.L22
.L18:
	.loc 2 239 0
	ldr	r2, [r7, #24]
	mov	r3, #31
	and	r2, r2, r3
	ldr	r3, [r7, #12]
	ldr	r0, [r3]
	ldr	r1, .L23+20
	mov	r3, r2
	lsl	r3, r3, #2
	add	r3, r3, r2
	lsl	r3, r3, #1
	add	r3, r3, r0
	lsl	r3, r3, #2
	ldr	r2, [r3, r1]
	ldr	r3, [r7, #12]
	str	r2, [r3, #44]
	.loc 2 240 0
	b	.L22
.L19:
	.loc 2 243 0
	ldr	r2, [r7, #24]
	mov	r3, #31
	and	r2, r2, r3
	ldr	r3, [r7, #12]
	ldr	r0, [r3]
	ldr	r1, .L23+24
	mov	r3, r2
	lsl	r3, r3, #2
	add	r3, r3, r2
	lsl	r3, r3, #1
	add	r3, r3, r0
	lsl	r3, r3, #2
	ldr	r2, [r3, r1]
	ldr	r3, [r7, #12]
	str	r2, [r3, #44]
	.loc 2 244 0
	b	.L22
.L20:
	.loc 2 247 0
	ldr	r3, [r7, #12]
	ldr	r2, [r3]
	ldr	r3, .L23+28
	lsl	r2, r2, #2
	ldr	r2, [r2, r3]
	ldr	r3, [r7, #12]
	str	r2, [r3, #44]
.L22:
	.loc 2 268 0
	mov	sp, r7
	add	sp, sp, #16
	@ sp needed for prologue
	pop	{r7, pc}
.L24:
	.align	2
.L23:
	.word	so
	.word	.L21
	.word	AttackERate
	.word	DecayERate
	.word	SustainERate
	.word	IncreaseERate
	.word	DecreaseERateExp
	.word	KeyOffERate
.LFE10:
	.cantunwind
	.fnend
	.size	_ZL13S9xSetEnvRateP7Channelmiij, .-_ZL13S9xSetEnvRateP7Channelmiij
	.align	2
	.code	16
	.thumb_func
	.type	_ZL16S9xSetEchoEnableh, %function
_ZL16S9xSetEchoEnableh:
	.fnstart
.LFB11:
	.loc 2 271 0
	.save	{r4, r7, lr}
	push	{r4, r7, lr}
.LCFI9:
	sub	sp, sp, #20
.LCFI10:
	add	r7, sp, #0
.LCFI11:
	mov	r2, r0
	add	r3, r7, #7
	strb	r2, [r3]
.LBB3:
	.loc 2 272 0
	add	r3, r7, #7
	ldrb	r2, [r3]
	ldr	r3, .L34
	str	r2, [r3, #28]
	.loc 2 273 0
	ldr	r3, .L34
	ldr	r3, [r3, #24]
	cmp	r3, #0
	beq	.L26
	ldr	r2, .L34+4
	mov	r3, #105
	ldrb	r3, [r2, r3]
	cmp	r3, #0
	beq	.L27
.L26:
	.loc 2 274 0
	add	r3, r7, #7
	mov	r2, #0
	strb	r2, [r3]
.L27:
	.loc 2 275 0
	add	r3, r7, #7
	ldrb	r3, [r3]
	cmp	r3, #0
	beq	.L28
	ldr	r3, .L34
	ldr	r3, [r3, #8]
	cmp	r3, #0
	bne	.L28
	.loc 2 277 0
	ldr	r2, .L34+8
	ldr	r3, .L34+12
	mov	r0, r2
	mov	r1, #0
	mov	r2, r3
	bl	memset
	.loc 2 278 0
	ldr	r3, .L34+16
	mov	r0, r3
	mov	r1, #0
	mov	r2, #64
	bl	memset
.L28:
	.loc 2 281 0
	add	r3, r7, #7
	ldrb	r2, [r3]
	ldr	r3, .L34
	str	r2, [r3, #8]
.LBB4:
	.loc 2 282 0
	mov	r3, #0
	str	r3, [r7, #12]
	b	.L29
.L32:
	.loc 2 284 0
	add	r3, r7, #7
	ldrb	r2, [r3]
	ldr	r3, [r7, #12]
	asr	r2, r2, r3
	mov	r3, #1
	and	r3, r3, r2
	lsl	r3, r3, #24
	lsr	r3, r3, #24
	cmp	r3, #0
	beq	.L30
	.loc 2 285 0
	ldr	r1, [r7, #12]
	ldr	r2, .L34
	mov	r3, #176
	mov	r0, #212
	mul	r1, r0
	add	r2, r1, r2
	add	r3, r2, r3
	ldr	r2, .L34+20
	str	r2, [r3]
	b	.L31
.L30:
	.loc 2 287 0
	ldr	r1, [r7, #12]
	ldr	r2, .L34
	mov	r3, #176
	mov	r0, #212
	mul	r1, r0
	add	r2, r1, r2
	add	r3, r2, r3
	mov	r2, #0
	str	r2, [r3]
.L31:
	.loc 2 282 0
	ldr	r3, [r7, #12]
	add	r3, r3, #1
	str	r3, [r7, #12]
.L29:
	ldr	r3, [r7, #12]
	mov	r2, #7
	lsr	r0, r3, #31
	asr	r1, r2, #31
	mov	r4, r0
	cmp	r2, r3
	adc	r4, r4, r1
	mov	r3, r4
	lsl	r3, r3, #24
	lsr	r3, r3, #24
	cmp	r3, #0
	bne	.L32
.LBE4:
.LBE3:
	.loc 2 289 0
	mov	sp, r7
	add	sp, sp, #20
	@ sp needed for prologue
	pop	{r4, r7, pc}
.L35:
	.align	2
.L34:
	.word	SoundData
	.word	Settings
	.word	Echo
	.word	96000
	.word	Loop
	.word	EchoBuffer
.LFE11:
	.cantunwind
	.fnend
	.size	_ZL16S9xSetEchoEnableh, .-_ZL16S9xSetEchoEnableh
	.align	2
	.code	16
	.thumb_func
	.type	_ZL18S9xSetEchoFeedbacki, %function
_ZL18S9xSetEchoFeedbacki:
	.fnstart
.LFB12:
	.loc 2 292 0
	.save	{r7, lr}
	push	{r7, lr}
.LCFI12:
	sub	sp, sp, #8
.LCFI13:
	add	r7, sp, #0
.LCFI14:
	str	r0, [r7, #4]
	.loc 2 293 0
	ldr	r3, [r7, #4]
	mov	r2, r3
	add	r2, r2, #128
	bge	.L37
	mov	r3, #128
	neg	r3, r3
	str	r3, [r7, #4]
	b	.L38
.L37:
	ldr	r3, [r7, #4]
	cmp	r3, #127
	ble	.L38
	mov	r3, #127
	str	r3, [r7, #4]
.L38:
	.loc 2 294 0
	ldr	r3, .L40
	ldr	r2, [r7, #4]
	str	r2, [r3, #12]
	.loc 2 295 0
	mov	sp, r7
	add	sp, sp, #8
	@ sp needed for prologue
	pop	{r7, pc}
.L41:
	.align	2
.L40:
	.word	SoundData
.LFE12:
	.cantunwind
	.fnend
	.size	_ZL18S9xSetEchoFeedbacki, .-_ZL18S9xSetEchoFeedbacki
	.align	2
	.code	16
	.thumb_func
	.type	_ZL23S9xSetFilterCoefficientii, %function
_ZL23S9xSetFilterCoefficientii:
	.fnstart
.LFB13:
	.loc 2 298 0
	.save	{r7, lr}
	push	{r7, lr}
.LCFI15:
	sub	sp, sp, #8
.LCFI16:
	add	r7, sp, #0
.LCFI17:
	str	r0, [r7, #4]
	str	r1, [r7]
	.loc 2 299 0
	ldr	r2, [r7, #4]
	mov	r3, #7
	and	r2, r2, r3
	ldr	r3, .L47
	lsl	r2, r2, #2
	ldr	r1, [r7]
	str	r1, [r2, r3]
	.loc 2 300 0
	ldr	r3, .L47
	ldr	r3, [r3]
	.loc 2 307 0
	cmp	r3, #127
	beq	.L43
	.loc 2 300 0
	ldr	r3, .L47
	ldr	r3, [r3]
	.loc 2 307 0
	cmp	r3, #0
	bne	.L44
.L43:
	.loc 2 301 0
	ldr	r3, .L47
	ldr	r3, [r3, #4]
	.loc 2 307 0
	cmp	r3, #0
	bne	.L44
	.loc 2 302 0
	ldr	r3, .L47
	ldr	r3, [r3, #8]
	.loc 2 307 0
	cmp	r3, #0
	bne	.L44
	.loc 2 303 0
	ldr	r3, .L47
	ldr	r3, [r3, #12]
	.loc 2 307 0
	cmp	r3, #0
	bne	.L44
	.loc 2 304 0
	ldr	r3, .L47
	ldr	r3, [r3, #16]
	.loc 2 307 0
	cmp	r3, #0
	bne	.L44
	.loc 2 305 0
	ldr	r3, .L47
	ldr	r3, [r3, #20]
	.loc 2 307 0
	cmp	r3, #0
	bne	.L44
	.loc 2 306 0
	ldr	r3, .L47
	ldr	r3, [r3, #24]
	.loc 2 307 0
	cmp	r3, #0
	bne	.L44
	ldr	r3, .L47
	ldr	r3, [r3, #28]
	cmp	r3, #0
	bne	.L44
	mov	r3, #1
	b	.L45
.L44:
	mov	r3, #0
.L45:
	mov	r1, r3
	ldr	r2, .L47+4
	mov	r3, #218
	lsl	r3, r3, #3
	strb	r1, [r2, r3]
	.loc 2 308 0
	mov	sp, r7
	add	sp, sp, #8
	@ sp needed for prologue
	pop	{r7, pc}
.L48:
	.align	2
.L47:
	.word	FilterTaps
	.word	SoundData
.LFE13:
	.cantunwind
	.fnend
	.size	_ZL23S9xSetFilterCoefficientii, .-_ZL23S9xSetFilterCoefficientii
	.align	2
	.code	16
	.thumb_func
	.type	_ZL19S9xGetSampleAddressi, %function
_ZL19S9xGetSampleAddressi:
	.fnstart
.LFB14:
	.loc 2 311 0
	.save	{r7, lr}
	push	{r7, lr}
.LCFI18:
	sub	sp, sp, #16
.LCFI19:
	add	r7, sp, #0
.LCFI20:
	str	r0, [r7, #4]
.LBB5:
	.loc 2 312 0
	ldr	r2, .L51
	mov	r3, #104
	ldrb	r3, [r2, r3]
	lsl	r2, r3, #8
	ldr	r3, [r7, #4]
	lsl	r3, r3, #2
	add	r3, r2, r3
	lsl	r3, r3, #16
	lsr	r3, r3, #16
	str	r3, [r7, #12]
	.loc 2 313 0
	ldr	r3, .L51+4
	ldr	r3, [r3, #68]
	mov	r2, r3
	ldr	r3, [r7, #12]
	add	r3, r2, r3
.LBE5:
	.loc 2 314 0
	mov	r0, r3
	mov	sp, r7
	add	sp, sp, #16
	@ sp needed for prologue
	pop	{r7, pc}
.L52:
	.align	2
.L51:
	.word	APU
	.word	IAPU
.LFE14:
	.cantunwind
	.fnend
	.size	_ZL19S9xGetSampleAddressi, .-_ZL19S9xGetSampleAddressi
	.align	2
	.code	16
	.thumb_func
	.type	_ZL20S9xSetSoundFrequencyii, %function
_ZL20S9xSetSoundFrequencyii:
	.fnstart
.LFB15:
	.loc 2 317 0
	.save	{r7, lr}
	push	{r7, lr}
.LCFI21:
	sub	sp, sp, #8
.LCFI22:
	add	r7, sp, #0
.LCFI23:
	str	r0, [r7, #4]
	str	r1, [r7]
	.loc 2 318 0
	ldr	r3, .L57
	ldr	r3, [r3]
	cmp	r3, #0
	beq	.L56
	.loc 2 320 0
	ldr	r2, [r7, #4]
	ldr	r3, .L57+4
	mov	r1, #212
	mul	r2, r1
	add	r3, r2, r3
	add	r3, r3, #52
	ldr	r3, [r3]
	cmp	r3, #1
	bne	.L55
	.loc 2 321 0
	ldr	r2, .L57+8
	mov	r3, #119
	ldrb	r3, [r2, r3]
	mov	r2, r3
	mov	r3, #31
	and	r2, r2, r3
	ldr	r3, .L57+12
	lsl	r2, r2, #2
	ldr	r3, [r2, r3]
	str	r3, [r7]
.L55:
	.loc 2 326 0
	ldr	r1, [r7, #4]
	ldr	r3, .L57
	ldr	r3, [r3, #12]
	ldr	r2, [r7]
	mul	r3, r2
	lsr	r2, r3, #11
	ldr	r3, .L57+4
	mov	r0, #212
	mul	r1, r0
	add	r3, r1, r3
	add	r3, r3, #64
	str	r2, [r3]
.L56:
	.loc 2 335 0
	mov	sp, r7
	add	sp, sp, #8
	@ sp needed for prologue
	pop	{r7, pc}
.L58:
	.align	2
.L57:
	.word	so
	.word	SoundData
	.word	APU
	.word	NoiseFreq
.LFE15:
	.cantunwind
	.fnend
	.size	_ZL20S9xSetSoundFrequencyii, .-_ZL20S9xSetSoundFrequencyii
	.bss
	.align	2
_ZL4wave:
	.space	7056
	.text
	.align	2
	.code	16
	.thumb_func
	.type	_ZL20S9xAPUSetEndOfSampleiP7Channel, %function
_ZL20S9xAPUSetEndOfSampleiP7Channel:
	.fnstart
.LFB36:
	.loc 1 144 0
	.save	{r7, lr}
	push	{r7, lr}
.LCFI24:
	sub	sp, sp, #8
.LCFI25:
	add	r7, sp, #0
.LCFI26:
	str	r0, [r7, #4]
	str	r1, [r7]
	.loc 1 145 0
	ldr	r3, [r7]
	mov	r2, #0
	str	r2, [r3]
	.loc 1 146 0
	ldr	r2, [r7]
	mov	r3, #132
	mov	r1, #0
	str	r1, [r2, r3]
	.loc 1 147 0
	ldr	r2, .L61
	mov	r3, #135
	ldrb	r3, [r2, r3]
	mov	r2, r3
	mov	r1, #1
	ldr	r3, [r7, #4]
	mov	r0, r1
	lsl	r0, r0, r3
	mov	r3, r0
	lsl	r3, r3, #24
	lsr	r3, r3, #24
	orr	r3, r3, r2
	lsl	r3, r3, #24
	lsr	r3, r3, #24
	lsl	r3, r3, #24
	lsr	r1, r3, #24
	ldr	r2, .L61
	mov	r3, #135
	strb	r1, [r2, r3]
	.loc 1 148 0
	ldr	r2, .L61
	mov	r3, #87
	ldrb	r3, [r2, r3]
	mov	r2, r3
	mov	r1, #1
	ldr	r3, [r7, #4]
	mov	r0, r1
	lsl	r0, r0, r3
	mov	r3, r0
	lsl	r3, r3, #24
	lsr	r3, r3, #24
	mvn	r3, r3
	lsl	r3, r3, #24
	lsr	r3, r3, #24
	and	r3, r3, r2
	lsl	r3, r3, #24
	lsr	r3, r3, #24
	lsl	r3, r3, #24
	lsr	r1, r3, #24
	ldr	r2, .L61
	mov	r3, #87
	strb	r1, [r2, r3]
	.loc 1 149 0
	ldr	r2, .L61
	mov	r3, #103
	ldrb	r3, [r2, r3]
	mov	r2, r3
	mov	r1, #1
	ldr	r3, [r7, #4]
	mov	r0, r1
	lsl	r0, r0, r3
	mov	r3, r0
	lsl	r3, r3, #24
	lsr	r3, r3, #24
	mvn	r3, r3
	lsl	r3, r3, #24
	lsr	r3, r3, #24
	and	r3, r3, r2
	lsl	r3, r3, #24
	lsr	r3, r3, #24
	lsl	r3, r3, #24
	lsr	r1, r3, #24
	ldr	r2, .L61
	mov	r3, #103
	strb	r1, [r2, r3]
	.loc 1 150 0
	ldr	r3, .L61
	ldrb	r3, [r3, #6]
	mov	r2, r3
	mov	r1, #1
	ldr	r3, [r7, #4]
	mov	r0, r1
	lsl	r0, r0, r3
	mov	r3, r0
	lsl	r3, r3, #24
	lsr	r3, r3, #24
	mvn	r3, r3
	lsl	r3, r3, #24
	lsr	r3, r3, #24
	and	r3, r3, r2
	lsl	r3, r3, #24
	lsr	r3, r3, #24
	lsl	r3, r3, #24
	lsr	r2, r3, #24
	ldr	r3, .L61
	strb	r2, [r3, #6]
	.loc 1 151 0
	mov	sp, r7
	add	sp, sp, #8
	@ sp needed for prologue
	pop	{r7, pc}
.L62:
	.align	2
.L61:
	.word	APU
.LFE36:
	.cantunwind
	.fnend
	.size	_ZL20S9xAPUSetEndOfSampleiP7Channel, .-_ZL20S9xAPUSetEndOfSampleiP7Channel
	.align	2
	.code	16
	.thumb_func
	.type	_ZL13S9xAPUSetEndXi, %function
_ZL13S9xAPUSetEndXi:
	.fnstart
.LFB37:
	.loc 1 157 0
	.save	{r7, lr}
	push	{r7, lr}
.LCFI27:
	sub	sp, sp, #8
.LCFI28:
	add	r7, sp, #0
.LCFI29:
	str	r0, [r7, #4]
	.loc 1 158 0
	ldr	r2, .L65
	mov	r3, #135
	ldrb	r3, [r2, r3]
	mov	r2, r3
	mov	r1, #1
	ldr	r3, [r7, #4]
	mov	r0, r1
	lsl	r0, r0, r3
	mov	r3, r0
	lsl	r3, r3, #24
	lsr	r3, r3, #24
	orr	r3, r3, r2
	lsl	r3, r3, #24
	lsr	r3, r3, #24
	lsl	r3, r3, #24
	lsr	r1, r3, #24
	ldr	r2, .L65
	mov	r3, #135
	strb	r1, [r2, r3]
	.loc 1 159 0
	mov	sp, r7
	add	sp, sp, #8
	@ sp needed for prologue
	pop	{r7, pc}
.L66:
	.align	2
.L65:
	.word	APU
.LFE37:
	.cantunwind
	.fnend
	.size	_ZL13S9xAPUSetEndXi, .-_ZL13S9xAPUSetEndXi
	.align	2
	.global	_Z15S9xSetEchoDelayi
	.hidden	_Z15S9xSetEchoDelayi
	.code	16
	.thumb_func
	.type	_Z15S9xSetEchoDelayi, %function
_Z15S9xSetEchoDelayi:
	.fnstart
.LFB38:
	.loc 1 165 0
	.save	{r4, r7, lr}
	push	{r4, r7, lr}
.LCFI30:
	sub	sp, sp, #12
.LCFI31:
	add	r7, sp, #0
.LCFI32:
	str	r0, [r7, #4]
	.loc 1 166 0
	ldr	r3, [r7, #4]
	lsl	r2, r3, #9
	ldr	r3, .L74
	ldr	r3, [r3]
	mul	r3, r2
	asr	r2, r3, #15
	ldr	r3, .L74+4
	str	r2, [r3, #20]
	.loc 1 167 0
	ldr	r3, .L74
	ldrb	r3, [r3, #4]
	cmp	r3, #0
	beq	.L68
	.loc 1 168 0
	ldr	r3, .L74+4
	ldr	r3, [r3, #20]
	lsl	r2, r3, #1
	ldr	r3, .L74+4
	str	r2, [r3, #20]
.L68:
	.loc 1 169 0
	ldr	r3, .L74+4
	ldr	r3, [r3, #20]
	cmp	r3, #0
	beq	.L69
	.loc 1 170 0
	b	.L70
.L71:
	.loc 1 171 0
	ldr	r3, .L74+4
	ldr	r2, [r3, #16]
	ldr	r3, .L74+4
	ldr	r3, [r3, #20]
	sub	r2, r2, r3
	ldr	r3, .L74+4
	str	r2, [r3, #16]
.L70:
	.loc 1 170 0
	ldr	r3, .L74+4
	ldr	r2, [r3, #16]
	ldr	r3, .L74+4
	ldr	r3, [r3, #20]
	asr	r0, r2, #31
	lsr	r1, r3, #31
	mov	r4, r0
	cmp	r2, r3
	adc	r4, r4, r1
	mov	r3, r4
	lsl	r3, r3, #24
	lsr	r3, r3, #24
	cmp	r3, #0
	bne	.L71
	b	.L72
.L69:
	.loc 1 173 0
	ldr	r3, .L74+4
	mov	r2, #0
	str	r2, [r3, #16]
.L72:
	.loc 1 174 0
	ldr	r2, .L74+8
	mov	r3, #88
	ldrb	r3, [r2, r3]
	mov	r0, r3
	bl	_ZL16S9xSetEchoEnableh
	.loc 1 175 0
	mov	sp, r7
	add	sp, sp, #12
	@ sp needed for prologue
	pop	{r4, r7, pc}
.L75:
	.align	2
.L74:
	.word	so
	.word	SoundData
	.word	APU
.LFE38:
	.cantunwind
	.fnend
	.size	_Z15S9xSetEchoDelayi, .-_Z15S9xSetEchoDelayi
	.align	2
	.global	_Z17S9xSetSoundKeyOffi
	.hidden	_Z17S9xSetSoundKeyOffi
	.code	16
	.thumb_func
	.type	_Z17S9xSetSoundKeyOffi, %function
_Z17S9xSetSoundKeyOffi:
	.fnstart
.LFB39:
	.loc 1 178 0
	.save	{r7, lr}
	push	{r7, lr}
.LCFI33:
	sub	sp, sp, #24
.LCFI34:
	add	r7, sp, #8
.LCFI35:
	str	r0, [r7, #4]
.LBB6:
	.loc 1 179 0
	ldr	r3, [r7, #4]
	mov	r2, #212
	mul	r3, r2
	mov	r2, r3
	add	r2, r2, #48
	ldr	r3, .L79
	add	r3, r2, r3
	str	r3, [r7, #12]
	.loc 1 181 0
	ldr	r3, [r7, #12]
	ldr	r3, [r3]
	cmp	r3, #0
	beq	.L78
	.loc 1 183 0
	ldr	r3, [r7, #12]
	mov	r2, #4
	str	r2, [r3]
	.loc 1 184 0
	ldr	r2, [r7, #12]
	mov	r3, #132
	mov	r1, #4
	str	r1, [r2, r3]
	.loc 1 185 0
	ldr	r1, [r7, #12]
	mov	r3, #1
	neg	r3, r3
	mov	r2, #160
	lsl	r2, r2, #23
	str	r2, [sp]
	mov	r0, r1
	mov	r1, #8
	mov	r2, r3
	mov	r3, #0
	bl	_ZL13S9xSetEnvRateP7Channelmiij
.L78:
.LBE6:
	.loc 1 187 0
	mov	sp, r7
	add	sp, sp, #16
	@ sp needed for prologue
	pop	{r7, pc}
.L80:
	.align	2
.L79:
	.word	SoundData
.LFE39:
	.cantunwind
	.fnend
	.size	_Z17S9xSetSoundKeyOffi, .-_Z17S9xSetSoundKeyOffi
	.align	2
	.global	_Z28S9xFixSoundAfterSnapshotLoadv
	.hidden	_Z28S9xFixSoundAfterSnapshotLoadv
	.code	16
	.thumb_func
	.type	_Z28S9xFixSoundAfterSnapshotLoadv, %function
_Z28S9xFixSoundAfterSnapshotLoadv:
	.fnstart
.LFB40:
	.loc 1 190 0
	.save	{r4, r7, lr}
	push	{r4, r7, lr}
.LCFI36:
	sub	sp, sp, #12
.LCFI37:
	add	r7, sp, #0
.LCFI38:
.LBB7:
	.loc 1 191 0
	ldr	r2, .L85
	mov	r3, #119
	ldrb	r3, [r2, r3]
	mov	r2, r3
	mov	r3, #32
	and	r3, r3, r2
	neg	r2, r3
	adc	r2, r2, r3
	ldr	r3, .L85+4
	str	r2, [r3, #24]
	.loc 1 192 0
	ldr	r2, .L85
	mov	r3, #88
	ldrb	r3, [r2, r3]
	mov	r2, r3
	ldr	r3, .L85+4
	str	r2, [r3, #28]
	.loc 1 193 0
	ldr	r2, .L85
	mov	r3, #136
	ldrb	r3, [r2, r3]
	mov	r2, r3
	mov	r3, #15
	and	r3, r3, r2
	mov	r0, r3
	bl	_Z15S9xSetEchoDelayi
	.loc 1 194 0
	ldr	r3, .L85
	ldrb	r3, [r3, #24]
	lsl	r3, r3, #24
	asr	r3, r3, #24
	mov	r0, r3
	bl	_ZL18S9xSetEchoFeedbacki
	.loc 1 196 0
	ldr	r3, .L85
	ldrb	r3, [r3, #26]
	lsl	r3, r3, #24
	asr	r3, r3, #24
	mov	r0, #0
	mov	r1, r3
	bl	_ZL23S9xSetFilterCoefficientii
	.loc 1 197 0
	ldr	r2, .L85
	mov	r3, #42
	ldrb	r3, [r2, r3]
	lsl	r3, r3, #24
	asr	r3, r3, #24
	mov	r0, #1
	mov	r1, r3
	bl	_ZL23S9xSetFilterCoefficientii
	.loc 1 198 0
	ldr	r2, .L85
	mov	r3, #58
	ldrb	r3, [r2, r3]
	lsl	r3, r3, #24
	asr	r3, r3, #24
	mov	r0, #2
	mov	r1, r3
	bl	_ZL23S9xSetFilterCoefficientii
	.loc 1 199 0
	ldr	r2, .L85
	mov	r3, #74
	ldrb	r3, [r2, r3]
	lsl	r3, r3, #24
	asr	r3, r3, #24
	mov	r0, #3
	mov	r1, r3
	bl	_ZL23S9xSetFilterCoefficientii
	.loc 1 200 0
	ldr	r2, .L85
	mov	r3, #90
	ldrb	r3, [r2, r3]
	lsl	r3, r3, #24
	asr	r3, r3, #24
	mov	r0, #4
	mov	r1, r3
	bl	_ZL23S9xSetFilterCoefficientii
	.loc 1 201 0
	ldr	r2, .L85
	mov	r3, #106
	ldrb	r3, [r2, r3]
	lsl	r3, r3, #24
	asr	r3, r3, #24
	mov	r0, #5
	mov	r1, r3
	bl	_ZL23S9xSetFilterCoefficientii
	.loc 1 202 0
	ldr	r2, .L85
	mov	r3, #122
	ldrb	r3, [r2, r3]
	lsl	r3, r3, #24
	asr	r3, r3, #24
	mov	r0, #6
	mov	r1, r3
	bl	_ZL23S9xSetFilterCoefficientii
	.loc 1 203 0
	ldr	r2, .L85
	mov	r3, #138
	ldrb	r3, [r2, r3]
	lsl	r3, r3, #24
	asr	r3, r3, #24
	mov	r0, #7
	mov	r1, r3
	bl	_ZL23S9xSetFilterCoefficientii
.LBB8:
	.loc 1 204 0
	mov	r3, #0
	str	r3, [r7, #4]
	b	.L82
.L83:
	.loc 1 206 0
	ldr	r1, [r7, #4]
	ldr	r2, .L85+4
	mov	r3, #160
	mov	r0, #212
	mul	r1, r0
	add	r2, r1, r2
	add	r3, r2, r3
	mov	r2, #1
	strb	r2, [r3, #7]
	.loc 1 207 0
	ldr	r2, [r7, #4]
	ldr	r3, .L85+4
	mov	r1, #212
	mul	r2, r1
	add	r3, r2, r3
	add	r3, r3, #60
	ldr	r3, [r3]
	ldr	r2, [r7, #4]
	mov	r0, r2
	mov	r1, r3
	bl	_ZL20S9xSetSoundFrequencyii
	.loc 1 208 0
	ldr	r0, [r7, #4]
	ldr	r2, [r7, #4]
	ldr	r3, .L85+4
	mov	r1, #212
	mul	r2, r1
	add	r3, r2, r3
	add	r3, r3, #76
	ldr	r3, [r3]
	lsl	r2, r3, #24
	ldr	r1, .L85+4
	mov	r3, #184
	mov	r4, #212
	mov	ip, r4
	mov	r4, r0
	mov	r0, ip
	mul	r0, r4
	add	r1, r0, r1
	add	r3, r1, r3
	str	r2, [r3]
	.loc 1 209 0
	ldr	r1, [r7, #4]
	ldr	r2, .L85+4
	mov	r3, #184
	mov	r0, #212
	mul	r1, r0
	add	r2, r1, r2
	add	r3, r2, r3
	mov	r2, #0
	strh	r2, [r3, #4]
	.loc 1 210 0
	ldr	r1, [r7, #4]
	ldr	r2, .L85+4
	mov	r3, #192
	mov	r0, #212
	mul	r1, r0
	add	r2, r1, r2
	add	r3, r2, r3
	mov	r2, #0
	str	r2, [r3]
	.loc 1 211 0
	ldr	r0, [r7, #4]
	ldr	r1, [r7, #4]
	ldr	r2, .L85+4
	mov	r3, #152
	mov	r4, #212
	mov	ip, r4
	mov	r4, r1
	mov	r1, ip
	mul	r1, r4
	add	r2, r1, r2
	add	r3, r2, r3
	ldrh	r3, [r3, #2]
	lsl	r3, r3, #16
	asr	r2, r3, #16
	ldr	r1, .L85+4
	mov	r3, #196
	mov	r4, #212
	mov	ip, r4
	mov	r4, r0
	mov	r0, ip
	mul	r0, r4
	add	r1, r0, r1
	add	r3, r1, r3
	str	r2, [r3]
	.loc 1 212 0
	ldr	r0, [r7, #4]
	ldr	r1, [r7, #4]
	ldr	r2, .L85+4
	mov	r3, #154
	mov	r4, #212
	mov	ip, r4
	mov	r4, r1
	mov	r1, ip
	mul	r1, r4
	add	r2, r1, r2
	add	r3, r2, r3
	ldrh	r3, [r3, #2]
	lsl	r3, r3, #16
	asr	r2, r3, #16
	ldr	r1, .L85+4
	mov	r3, #200
	mov	r4, #212
	mov	ip, r4
	mov	r4, r0
	mov	r0, ip
	mul	r0, r4
	add	r1, r0, r1
	add	r3, r1, r3
	str	r2, [r3]
	.loc 1 204 0
	ldr	r3, [r7, #4]
	add	r3, r3, #1
	str	r3, [r7, #4]
.L82:
	ldr	r3, [r7, #4]
	mov	r2, #7
	lsr	r0, r3, #31
	asr	r1, r2, #31
	mov	r4, r0
	cmp	r2, r3
	adc	r4, r4, r1
	mov	r3, r4
	lsl	r3, r3, #24
	lsr	r3, r3, #24
	cmp	r3, #0
	bne	.L83
.LBE8:
	.loc 1 214 0
	ldr	r3, .L85+4
	ldrh	r3, [r3]
	lsl	r3, r3, #16
	asr	r1, r3, #16
	ldr	r2, .L85+4
	ldr	r3, .L85+8
	str	r1, [r2, r3]
	.loc 1 215 0
	ldr	r3, .L85+4
	ldrh	r3, [r3, #2]
	lsl	r3, r3, #16
	asr	r1, r3, #16
	ldr	r2, .L85+4
	mov	r3, #219
	lsl	r3, r3, #3
	str	r1, [r2, r3]
	.loc 1 216 0
	ldr	r3, .L85+4
	ldrh	r3, [r3, #4]
	lsl	r3, r3, #16
	asr	r1, r3, #16
	ldr	r2, .L85+4
	ldr	r3, .L85+12
	str	r1, [r2, r3]
	.loc 1 217 0
	ldr	r3, .L85+4
	ldrh	r3, [r3, #6]
	lsl	r3, r3, #16
	asr	r1, r3, #16
	ldr	r2, .L85+4
	mov	r3, #220
	lsl	r3, r3, #3
	str	r1, [r2, r3]
	.loc 1 218 0
	ldr	r3, .L85+16
	mov	r2, #0
	str	r2, [r3, #36]
.LBE7:
	.loc 1 219 0
	mov	sp, r7
	add	sp, sp, #12
	@ sp needed for prologue
	pop	{r4, r7, pc}
.L86:
	.align	2
.L85:
	.word	APU
	.word	SoundData
	.word	1748
	.word	1756
	.word	IAPU
.LFE40:
	.cantunwind
	.fnend
	.size	_Z28S9xFixSoundAfterSnapshotLoadv, .-_Z28S9xFixSoundAfterSnapshotLoadv
	.align	2
	.global	_Z20S9xSetEnvelopeHeightii
	.hidden	_Z20S9xSetEnvelopeHeightii
	.code	16
	.thumb_func
	.type	_Z20S9xSetEnvelopeHeightii, %function
_Z20S9xSetEnvelopeHeightii:
	.fnstart
.LFB41:
	.loc 1 222 0
	.save	{r7, lr}
	push	{r7, lr}
.LCFI39:
	sub	sp, sp, #16
.LCFI40:
	add	r7, sp, #0
.LCFI41:
	str	r0, [r7, #4]
	str	r1, [r7]
.LBB9:
	.loc 1 223 0
	ldr	r3, [r7, #4]
	mov	r2, #212
	mul	r3, r2
	mov	r2, r3
	add	r2, r2, #48
	ldr	r3, .L92
	add	r3, r2, r3
	str	r3, [r7, #12]
	.loc 1 225 0
	ldr	r3, [r7, #12]
	ldr	r2, [r7]
	str	r2, [r3, #28]
	.loc 1 226 0
	ldr	r3, [r7]
	lsl	r1, r3, #24
	ldr	r2, [r7, #12]
	mov	r3, #136
	str	r1, [r2, r3]
	.loc 1 228 0
	ldr	r3, [r7, #12]
	ldrh	r3, [r3, #8]
	lsl	r3, r3, #16
	asr	r3, r3, #16
	ldr	r2, [r7]
	mul	r3, r2
	cmp	r3, #0
	bge	.L88
	add	r3, r3, #127
.L88:
	asr	r3, r3, #7
	lsl	r3, r3, #16
	lsr	r2, r3, #16
	ldr	r3, [r7, #12]
	strh	r2, [r3, #32]
	.loc 1 229 0
	ldr	r3, [r7, #12]
	ldrh	r3, [r3, #10]
	lsl	r3, r3, #16
	asr	r3, r3, #16
	ldr	r2, [r7]
	mul	r3, r2
	cmp	r3, #0
	bge	.L89
	add	r3, r3, #127
.L89:
	asr	r3, r3, #7
	lsl	r3, r3, #16
	lsr	r2, r3, #16
	ldr	r3, [r7, #12]
	strh	r2, [r3, #34]
	.loc 1 231 0
	ldr	r3, [r7, #12]
	ldr	r3, [r3, #28]
	cmp	r3, #0
	bne	.L91
	ldr	r3, [r7, #12]
	ldr	r3, [r3]
	cmp	r3, #0
	beq	.L91
	ldr	r3, [r7, #12]
	ldr	r3, [r3]
	cmp	r3, #5
	beq	.L91
	.loc 1 233 0
	ldr	r2, [r7, #4]
	ldr	r3, [r7, #12]
	mov	r0, r2
	mov	r1, r3
	bl	_ZL20S9xAPUSetEndOfSampleiP7Channel
.L91:
.LBE9:
	.loc 1 235 0
	mov	sp, r7
	add	sp, sp, #16
	@ sp needed for prologue
	pop	{r7, pc}
.L93:
	.align	2
.L92:
	.word	SoundData
.LFE41:
	.cantunwind
	.fnend
	.size	_Z20S9xSetEnvelopeHeightii, .-_Z20S9xSetEnvelopeHeightii
	.align	2
	.global	_Z17S9xSetSoundSampleit
	.hidden	_Z17S9xSetSoundSampleit
	.code	16
	.thumb_func
	.type	_Z17S9xSetSoundSampleit, %function
_Z17S9xSetSoundSampleit:
	.fnstart
.LFB42:
	.loc 1 239 0
	.save	{r7, lr}
	push	{r7, lr}
.LCFI42:
	sub	sp, sp, #8
.LCFI43:
	add	r7, sp, #0
.LCFI44:
	str	r0, [r7, #4]
	mov	r2, r1
	add	r3, r7, #2
	strh	r2, [r3]
	.loc 1 240 0
	mov	sp, r7
	add	sp, sp, #8
	@ sp needed for prologue
	pop	{r7, pc}
.LFE42:
	.cantunwind
	.fnend
	.size	_Z17S9xSetSoundSampleit, .-_Z17S9xSetSoundSampleit
	.align	2
	.code	16
	.thumb_func
	.type	_ZL11DecodeBlockP7Channel, %function
_ZL11DecodeBlockP7Channel:
	.fnstart
.LFB43:
	.loc 1 264 0
	.save	{r7, lr}
	push	{r7, lr}
.LCFI45:
	sub	sp, sp, #40
.LCFI46:
	add	r7, sp, #0
.LCFI47:
	str	r0, [r7, #4]
.LBB10:
	.loc 1 265 0
	ldr	r3, [r7, #4]
	ldr	r2, [r3, #120]
	ldr	r3, .L115
	cmp	r2, r3
	bls	.L97
	.loc 1 267 0
	ldr	r2, [r7, #4]
	mov	r3, #118
	mov	r1, #1
	strb	r1, [r2, r3]
	.loc 1 268 0
	ldr	r3, [r7, #4]
	mov	r2, #0
	strb	r2, [r3, #24]
	.loc 1 269 0
	ldr	r3, [r7, #4]
	mov	r2, r3
	add	r2, r2, #74
	ldr	r3, [r7, #4]
	str	r2, [r3, #112]
	.loc 1 270 0
	ldr	r3, [r7, #4]
	add	r3, r3, #74
	mov	r0, r3
	mov	r1, #0
	mov	r2, #8
	bl	_ZL15sounduxmemset32Pvmm
	.loc 1 271 0
	b	.L114
.L97:
	.loc 1 273 0
	ldr	r3, .L115+4
	ldr	r3, [r3, #68]
	mov	r2, r3
	ldr	r3, [r7, #4]
	ldr	r3, [r3, #120]
	add	r3, r2, r3
	str	r3, [r7, #8]
	.loc 1 275 0
	ldr	r3, [r7, #8]
	ldrb	r2, [r3]
	mov	r3, r7
	add	r3, r3, #15
	strb	r2, [r3]
	.loc 1 276 0
	mov	r3, r7
	add	r3, r3, #15
	ldrb	r3, [r3]
	mov	r2, #1
	and	r3, r3, r2
	ldr	r1, [r7, #4]
	mov	r2, #118
	strb	r3, [r1, r2]
	ldr	r2, [r7, #4]
	mov	r3, #118
	ldrb	r3, [r2, r3]
	sub	r2, r3, #1
	sbc	r3, r3, r2
	lsl	r3, r3, #24
	lsr	r3, r3, #24
	cmp	r3, #0
	beq	.L99
	.loc 1 277 0
	mov	r3, r7
	add	r3, r3, #15
	ldrb	r2, [r3]
	mov	r3, #2
	and	r3, r3, r2
	mov	r2, r3
	sub	r3, r2, #1
	sbc	r2, r2, r3
	ldr	r3, [r7, #4]
	strb	r2, [r3, #24]
.L99:
	.loc 1 279 0
	ldr	r3, [r7, #4]
	mov	r2, r3
	add	r2, r2, #74
	ldr	r3, [r7, #4]
	str	r2, [r3, #112]
	ldr	r3, [r7, #4]
	ldr	r3, [r3, #112]
	str	r3, [r7, #16]
	.loc 1 289 0
	ldr	r3, [r7, #8]
	add	r3, r3, #1
	str	r3, [r7, #8]
	.loc 1 291 0
	ldr	r2, [r7, #4]
	mov	r3, #148
	ldr	r3, [r2, r3]
	str	r3, [r7, #32]
	.loc 1 292 0
	ldr	r2, [r7, #4]
	mov	r3, #152
	ldr	r3, [r2, r3]
	str	r3, [r7, #36]
	.loc 1 293 0
	mov	r3, r7
	add	r3, r3, #15
	ldrb	r3, [r3]
	asr	r2, r3, #4
	mov	r3, r7
	add	r3, r3, #25
	strb	r2, [r3]
	.loc 1 295 0
	mov	r3, r7
	add	r3, r3, #15
	ldrb	r3, [r3]
	asr	r2, r3, #2
	mov	r3, #3
	and	r3, r3, r2
	cmp	r3, #1
	beq	.L102
	cmp	r3, #1
	bgt	.L105
	cmp	r3, #0
	beq	.L101
	b	.L100
.L105:
	cmp	r3, #2
	bne	.LCB1425
	b	.L103	@long jump
.LCB1425:
	cmp	r3, #3
	bne	.LCB1427
	b	.L104	@long jump
.LCB1427:
	b	.L100
.L101:
	.loc 1 298 0
	mov	r3, #8
	str	r3, [r7, #28]
	b	.L106
.L107:
	.loc 1 300 0
	mov	r3, r7
	add	r3, r3, #26
	ldr	r2, [r7, #8]
	ldrb	r2, [r2]
	strb	r2, [r3]
	ldr	r3, [r7, #8]
	add	r3, r3, #1
	str	r3, [r7, #8]
	.loc 1 301 0
	mov	r3, r7
	add	r3, r3, #26
	ldrb	r3, [r3, #0]
	lsl	r3, r3, #24
	asr	r3, r3, #24
	lsl	r2, r3, #4
	mov	r3, r7
	add	r3, r3, #27
	strb	r2, [r3]
	.loc 1 302 0
	mov	r3, r7
	add	r3, r3, #27
	ldrb	r3, [r3, #0]
	lsl	r3, r3, #24
	asr	r3, r3, #24
	asr	r2, r3, #4
	mov	r3, r7
	add	r3, r3, #27
	strb	r2, [r3]
	.loc 1 303 0
	mov	r3, r7
	add	r3, r3, #26
	ldrb	r3, [r3, #0]
	lsl	r3, r3, #24
	asr	r3, r3, #24
	asr	r2, r3, #4
	mov	r3, r7
	add	r3, r3, #26
	strb	r2, [r3]
	.loc 1 304 0
	mov	r3, r7
	add	r3, r3, #26
	mov	r2, #0
	ldrsb	r2, [r3, r2]
	mov	r3, r7
	add	r3, r3, #25
	ldrb	r3, [r3]
	mov	r1, r2
	lsl	r1, r1, r3
	mov	r3, r1
	lsl	r3, r3, #16
	lsr	r2, r3, #16
	ldr	r3, [r7, #16]
	strh	r2, [r3]
	ldr	r3, [r7, #16]
	add	r3, r3, #2
	str	r3, [r7, #16]
	.loc 1 305 0
	mov	r3, r7
	add	r3, r3, #27
	mov	r2, #0
	ldrsb	r2, [r3, r2]
	mov	r3, r7
	add	r3, r3, #25
	ldrb	r3, [r3]
	mov	r1, r2
	lsl	r1, r1, r3
	mov	r3, r1
	lsl	r3, r3, #16
	lsr	r2, r3, #16
	ldr	r3, [r7, #16]
	strh	r2, [r3]
	ldr	r3, [r7, #16]
	add	r3, r3, #2
	str	r3, [r7, #16]
	.loc 1 298 0
	ldr	r3, [r7, #28]
	sub	r3, r3, #1
	str	r3, [r7, #28]
.L106:
	ldr	r3, [r7, #28]
	sub	r2, r3, #1
	sbc	r3, r3, r2
	lsl	r3, r3, #24
	lsr	r3, r3, #24
	cmp	r3, #0
	bne	.L107
	.loc 1 307 0
	ldr	r3, [r7, #16]
	sub	r3, r3, #4
	ldrh	r3, [r3]
	lsl	r3, r3, #16
	asr	r3, r3, #16
	str	r3, [r7, #36]
	.loc 1 308 0
	ldr	r3, [r7, #16]
	sub	r3, r3, #2
	ldrh	r3, [r3]
	lsl	r3, r3, #16
	asr	r3, r3, #16
	str	r3, [r7, #32]
	.loc 1 309 0
	b	.L100
.L102:
	.loc 1 311 0
	mov	r3, #8
	str	r3, [r7, #28]
	b	.L108
.L109:
	.loc 1 313 0
	mov	r3, r7
	add	r3, r3, #26
	ldr	r2, [r7, #8]
	ldrb	r2, [r2]
	strb	r2, [r3]
	ldr	r3, [r7, #8]
	add	r3, r3, #1
	str	r3, [r7, #8]
	.loc 1 314 0
	mov	r3, r7
	add	r3, r3, #26
	ldrb	r3, [r3, #0]
	lsl	r3, r3, #24
	asr	r3, r3, #24
	lsl	r2, r3, #4
	mov	r3, r7
	add	r3, r3, #27
	strb	r2, [r3]
	.loc 1 315 0
	mov	r3, r7
	add	r3, r3, #27
	ldrb	r3, [r3, #0]
	lsl	r3, r3, #24
	asr	r3, r3, #24
	asr	r2, r3, #4
	mov	r3, r7
	add	r3, r3, #27
	strb	r2, [r3]
	.loc 1 316 0
	mov	r3, r7
	add	r3, r3, #26
	ldrb	r3, [r3, #0]
	lsl	r3, r3, #24
	asr	r3, r3, #24
	asr	r2, r3, #4
	mov	r3, r7
	add	r3, r3, #26
	strb	r2, [r3]
	.loc 1 317 0
	ldr	r3, [r7, #32]
	lsl	r3, r3, #16
	lsr	r3, r3, #16
	lsl	r3, r3, #16
	asr	r3, r3, #16
	str	r3, [r7, #32]
	.loc 1 318 0
	mov	r3, r7
	add	r3, r3, #26
	mov	r2, #0
	ldrsb	r2, [r3, r2]
	mov	r3, r7
	add	r3, r3, #25
	ldrb	r3, [r3]
	lsl	r2, r2, r3
	ldr	r3, [r7, #32]
	add	r2, r2, r3
	ldr	r3, [r7, #32]
	asr	r3, r3, #4
	sub	r3, r2, r3
	str	r3, [r7, #36]
	ldr	r3, [r7, #36]
	lsl	r3, r3, #16
	lsr	r2, r3, #16
	ldr	r3, [r7, #16]
	strh	r2, [r3]
	ldr	r3, [r7, #16]
	add	r3, r3, #2
	str	r3, [r7, #16]
	.loc 1 319 0
	ldr	r3, [r7, #36]
	lsl	r3, r3, #16
	lsr	r3, r3, #16
	lsl	r3, r3, #16
	asr	r3, r3, #16
	str	r3, [r7, #36]
	.loc 1 320 0
	mov	r3, r7
	add	r3, r3, #27
	mov	r2, #0
	ldrsb	r2, [r3, r2]
	mov	r3, r7
	add	r3, r3, #25
	ldrb	r3, [r3]
	lsl	r2, r2, r3
	ldr	r3, [r7, #36]
	add	r2, r2, r3
	ldr	r3, [r7, #36]
	asr	r3, r3, #4
	sub	r3, r2, r3
	str	r3, [r7, #32]
	ldr	r3, [r7, #32]
	lsl	r3, r3, #16
	lsr	r2, r3, #16
	ldr	r3, [r7, #16]
	strh	r2, [r3]
	ldr	r3, [r7, #16]
	add	r3, r3, #2
	str	r3, [r7, #16]
	.loc 1 311 0
	ldr	r3, [r7, #28]
	sub	r3, r3, #1
	str	r3, [r7, #28]
.L108:
	ldr	r3, [r7, #28]
	sub	r2, r3, #1
	sbc	r3, r3, r2
	lsl	r3, r3, #24
	lsr	r3, r3, #24
	cmp	r3, #0
	bne	.L109
	.loc 1 322 0
	b	.L100
.L103:
	.loc 1 324 0
	mov	r3, #8
	str	r3, [r7, #28]
	b	.L110
.L116:
	.align	2
.L115:
	.word	65526
	.word	IAPU
.L111:
	.loc 1 326 0
	mov	r3, r7
	add	r3, r3, #26
	ldr	r2, [r7, #8]
	ldrb	r2, [r2]
	strb	r2, [r3]
	ldr	r3, [r7, #8]
	add	r3, r3, #1
	str	r3, [r7, #8]
	.loc 1 327 0
	mov	r3, r7
	add	r3, r3, #26
	ldrb	r3, [r3, #0]
	lsl	r3, r3, #24
	asr	r3, r3, #24
	lsl	r2, r3, #4
	mov	r3, r7
	add	r3, r3, #27
	strb	r2, [r3]
	.loc 1 328 0
	mov	r3, r7
	add	r3, r3, #27
	ldrb	r3, [r3, #0]
	lsl	r3, r3, #24
	asr	r3, r3, #24
	asr	r2, r3, #4
	mov	r3, r7
	add	r3, r3, #27
	strb	r2, [r3]
	.loc 1 329 0
	mov	r3, r7
	add	r3, r3, #26
	ldrb	r3, [r3, #0]
	lsl	r3, r3, #24
	asr	r3, r3, #24
	asr	r2, r3, #4
	mov	r3, r7
	add	r3, r3, #26
	strb	r2, [r3]
	.loc 1 331 0
	mov	r3, r7
	add	r3, r3, #26
	mov	r2, #0
	ldrsb	r2, [r3, r2]
	mov	r3, r7
	add	r3, r3, #25
	ldrb	r3, [r3]
	lsl	r2, r2, r3
	ldr	r3, [r7, #36]
	sub	r2, r2, r3
	ldr	r3, [r7, #36]
	asr	r3, r3, #4
	add	r3, r2, r3
	str	r3, [r7, #20]
	.loc 1 332 0
	ldr	r3, [r7, #32]
	lsl	r3, r3, #16
	lsr	r3, r3, #16
	lsl	r3, r3, #16
	asr	r3, r3, #16
	str	r3, [r7, #36]
	.loc 1 333 0
	ldr	r3, [r7, #32]
	mov	r2, #3
	bic	r3, r3, r2
	str	r3, [r7, #32]
	.loc 1 335 0
	ldr	r3, [r7, #32]
	lsl	r2, r3, #1
	ldr	r3, [r7, #20]
	add	r2, r2, r3
	ldr	r3, [r7, #32]
	asr	r3, r3, #5
	sub	r2, r2, r3
	ldr	r3, [r7, #32]
	asr	r3, r3, #4
	sub	r3, r2, r3
	str	r3, [r7, #32]
	ldr	r3, [r7, #32]
	lsl	r3, r3, #16
	lsr	r2, r3, #16
	ldr	r3, [r7, #16]
	strh	r2, [r3]
	ldr	r3, [r7, #16]
	add	r3, r3, #2
	str	r3, [r7, #16]
	.loc 1 337 0
	mov	r3, r7
	add	r3, r3, #27
	mov	r2, #0
	ldrsb	r2, [r3, r2]
	mov	r3, r7
	add	r3, r3, #25
	ldrb	r3, [r3]
	lsl	r2, r2, r3
	ldr	r3, [r7, #36]
	sub	r2, r2, r3
	ldr	r3, [r7, #36]
	asr	r3, r3, #4
	add	r3, r2, r3
	str	r3, [r7, #20]
	.loc 1 338 0
	ldr	r3, [r7, #32]
	lsl	r3, r3, #16
	lsr	r3, r3, #16
	lsl	r3, r3, #16
	asr	r3, r3, #16
	str	r3, [r7, #36]
	.loc 1 339 0
	ldr	r3, [r7, #32]
	mov	r2, #3
	bic	r3, r3, r2
	str	r3, [r7, #32]
	.loc 1 341 0
	ldr	r3, [r7, #32]
	lsl	r2, r3, #1
	ldr	r3, [r7, #20]
	add	r2, r2, r3
	ldr	r3, [r7, #32]
	asr	r3, r3, #5
	sub	r2, r2, r3
	ldr	r3, [r7, #32]
	asr	r3, r3, #4
	sub	r3, r2, r3
	str	r3, [r7, #32]
	ldr	r3, [r7, #32]
	lsl	r3, r3, #16
	lsr	r2, r3, #16
	ldr	r3, [r7, #16]
	strh	r2, [r3]
	ldr	r3, [r7, #16]
	add	r3, r3, #2
	str	r3, [r7, #16]
	.loc 1 324 0
	ldr	r3, [r7, #28]
	sub	r3, r3, #1
	str	r3, [r7, #28]
.L110:
	ldr	r3, [r7, #28]
	sub	r2, r3, #1
	sbc	r3, r3, r2
	lsl	r3, r3, #24
	lsr	r3, r3, #24
	cmp	r3, #0
	beq	.LCB1766
	b	.L111	@long jump
.LCB1766:
	.loc 1 343 0
	b	.L100
.L104:
	.loc 1 345 0
	mov	r3, #8
	str	r3, [r7, #28]
	b	.L112
.L113:
	.loc 1 347 0
	mov	r3, r7
	add	r3, r3, #26
	ldr	r2, [r7, #8]
	ldrb	r2, [r2]
	strb	r2, [r3]
	ldr	r3, [r7, #8]
	add	r3, r3, #1
	str	r3, [r7, #8]
	.loc 1 348 0
	mov	r3, r7
	add	r3, r3, #26
	ldrb	r3, [r3, #0]
	lsl	r3, r3, #24
	asr	r3, r3, #24
	lsl	r2, r3, #4
	mov	r3, r7
	add	r3, r3, #27
	strb	r2, [r3]
	.loc 1 349 0
	mov	r3, r7
	add	r3, r3, #27
	ldrb	r3, [r3, #0]
	lsl	r3, r3, #24
	asr	r3, r3, #24
	asr	r2, r3, #4
	mov	r3, r7
	add	r3, r3, #27
	strb	r2, [r3]
	.loc 1 350 0
	mov	r3, r7
	add	r3, r3, #26
	ldrb	r3, [r3, #0]
	lsl	r3, r3, #24
	asr	r3, r3, #24
	asr	r2, r3, #4
	mov	r3, r7
	add	r3, r3, #26
	strb	r2, [r3]
	.loc 1 351 0
	mov	r3, r7
	add	r3, r3, #26
	mov	r2, #0
	ldrsb	r2, [r3, r2]
	mov	r3, r7
	add	r3, r3, #25
	ldrb	r3, [r3]
	mov	r1, r2
	lsl	r1, r1, r3
	mov	r3, r1
	str	r3, [r7, #20]
	.loc 1 353 0
	ldr	r2, [r7, #20]
	ldr	r3, [r7, #36]
	sub	r2, r2, r3
	ldr	r3, [r7, #36]
	asr	r3, r3, #3
	add	r2, r2, r3
	ldr	r3, [r7, #36]
	asr	r3, r3, #4
	add	r3, r2, r3
	str	r3, [r7, #20]
	.loc 1 354 0
	ldr	r3, [r7, #32]
	lsl	r3, r3, #16
	lsr	r3, r3, #16
	lsl	r3, r3, #16
	asr	r3, r3, #16
	str	r3, [r7, #36]
	.loc 1 355 0
	ldr	r3, [r7, #32]
	mov	r2, #3
	bic	r3, r3, r2
	str	r3, [r7, #32]
	.loc 1 357 0
	ldr	r3, [r7, #32]
	lsl	r2, r3, #1
	ldr	r3, [r7, #20]
	add	r2, r2, r3
	ldr	r3, [r7, #32]
	asr	r3, r3, #3
	sub	r2, r2, r3
	ldr	r3, [r7, #32]
	asr	r3, r3, #4
	sub	r2, r2, r3
	ldr	r3, [r7, #36]
	asr	r3, r3, #6
	sub	r3, r2, r3
	str	r3, [r7, #32]
	ldr	r3, [r7, #32]
	lsl	r3, r3, #16
	lsr	r2, r3, #16
	ldr	r3, [r7, #16]
	strh	r2, [r3]
	ldr	r3, [r7, #16]
	add	r3, r3, #2
	str	r3, [r7, #16]
	.loc 1 359 0
	mov	r3, r7
	add	r3, r3, #27
	mov	r2, #0
	ldrsb	r2, [r3, r2]
	mov	r3, r7
	add	r3, r3, #25
	ldrb	r3, [r3]
	mov	r1, r2
	lsl	r1, r1, r3
	mov	r3, r1
	str	r3, [r7, #20]
	.loc 1 360 0
	ldr	r2, [r7, #20]
	ldr	r3, [r7, #36]
	sub	r2, r2, r3
	ldr	r3, [r7, #36]
	asr	r3, r3, #3
	add	r2, r2, r3
	ldr	r3, [r7, #36]
	asr	r3, r3, #4
	add	r3, r2, r3
	str	r3, [r7, #20]
	.loc 1 361 0
	ldr	r3, [r7, #32]
	lsl	r3, r3, #16
	lsr	r3, r3, #16
	lsl	r3, r3, #16
	asr	r3, r3, #16
	str	r3, [r7, #36]
	.loc 1 362 0
	ldr	r3, [r7, #32]
	mov	r2, #3
	bic	r3, r3, r2
	str	r3, [r7, #32]
	.loc 1 364 0
	ldr	r3, [r7, #32]
	lsl	r2, r3, #1
	ldr	r3, [r7, #20]
	add	r2, r2, r3
	ldr	r3, [r7, #32]
	asr	r3, r3, #3
	sub	r2, r2, r3
	ldr	r3, [r7, #32]
	asr	r3, r3, #4
	sub	r2, r2, r3
	ldr	r3, [r7, #36]
	asr	r3, r3, #6
	sub	r3, r2, r3
	str	r3, [r7, #32]
	ldr	r3, [r7, #32]
	lsl	r3, r3, #16
	lsr	r2, r3, #16
	ldr	r3, [r7, #16]
	strh	r2, [r3]
	ldr	r3, [r7, #16]
	add	r3, r3, #2
	str	r3, [r7, #16]
	.loc 1 345 0
	ldr	r3, [r7, #28]
	sub	r3, r3, #1
	str	r3, [r7, #28]
.L112:
	ldr	r3, [r7, #28]
	sub	r2, r3, #1
	sbc	r3, r3, r2
	lsl	r3, r3, #24
	lsr	r3, r3, #24
	cmp	r3, #0
	beq	.LCB1920
	b	.L113	@long jump
.LCB1920:
.L100:
	.loc 1 368 0
	ldr	r2, [r7, #4]
	mov	r3, #148
	ldr	r1, [r7, #32]
	str	r1, [r2, r3]
	.loc 1 369 0
	ldr	r2, [r7, #4]
	mov	r3, #152
	ldr	r1, [r7, #36]
	str	r1, [r2, r3]
	.loc 1 371 0
	ldr	r3, [r7, #4]
	ldr	r3, [r3, #120]
	mov	r2, r3
	add	r2, r2, #9
	ldr	r3, [r7, #4]
	str	r2, [r3, #120]
.L114:
.LBE10:
	.loc 1 372 0
	mov	sp, r7
	add	sp, sp, #40
	@ sp needed for prologue
	pop	{r7, pc}
.LFE43:
	.cantunwind
	.fnend
	.size	_ZL11DecodeBlockP7Channel, .-_ZL11DecodeBlockP7Channel
	.align	2
	.code	16
	.thumb_func
	.type	_ZL9MixStereoi, %function
_ZL9MixStereoi:
	.fnstart
.LFB44:
	.loc 1 376 0
	.save	{r7, lr}
	push	{r7, lr}
.LCFI48:
	sub	sp, sp, #64
.LCFI49:
	add	r7, sp, #8
.LCFI50:
	str	r0, [r7, #4]
.LBB11:
	.loc 1 377 0
	ldr	r3, .L208
	ldr	r3, [r3, #32]
	mov	r2, r3
	ldr	r1, .L208+4
	mov	r3, #72
	ldrb	r3, [r1, r3]
	mvn	r3, r3
	and	r3, r3, r2
	str	r3, [r7, #8]
.LBB12:
	.loc 1 379 0
	mov	r3, #0
	str	r3, [r7, #12]
	bl	.L118	@ far jump
.L195:
.LBB13:
	.loc 1 382 0
	ldr	r3, [r7, #12]
	mov	r2, #212
	mul	r3, r2
	mov	r2, r3
	add	r2, r2, #48
	ldr	r3, .L208
	add	r3, r2, r3
	str	r3, [r7, #24]
	.loc 1 383 0
	ldr	r3, [r7, #24]
	ldr	r3, [r3, #16]
	str	r3, [r7, #28]
	.loc 1 385 0
	ldr	r3, [r7, #24]
	ldr	r3, [r3]
	cmp	r3, #0
	bne	.LCB1986
	bl	.L197	@far jump
.LCB1986:
	ldr	r3, .L208+8
	ldrb	r3, [r3, #6]
	mov	r2, r3
	ldr	r3, [r7, #12]
	asr	r2, r2, r3
	mov	r3, #1
	and	r3, r3, r2
	lsl	r3, r3, #24
	lsr	r2, r3, #24
	mov	r3, #1
	eor	r3, r3, r2
	lsl	r3, r3, #24
	lsr	r3, r3, #24
	cmp	r3, #0
	beq	.LCB2001
	bl	.L198	@far jump
.LCB2001:
.L120:
	.loc 1 390 0
	ldr	r3, [r7, #12]
	mov	r2, #1
	mov	r1, r2
	lsl	r1, r1, r3
	mov	r3, r1
	lsl	r3, r3, #24
	lsr	r2, r3, #24
	ldr	r3, [r7, #8]
	lsl	r3, r3, #24
	lsr	r3, r3, #24
	and	r3, r3, r2
	lsl	r3, r3, #24
	lsr	r2, r3, #24
	mov	r3, r7
	add	r3, r3, #35
	strb	r2, [r3]
	.loc 1 392 0
	ldr	r2, [r7, #24]
	mov	r3, #119
	ldrb	r3, [r2, r3]
	cmp	r3, #0
	beq	.L122
	.loc 1 394 0
	ldr	r3, [r7, #24]
	mov	r0, r3
	bl	_ZL11DecodeBlockP7Channel
	.loc 1 395 0
	ldr	r2, [r7, #24]
	mov	r3, #119
	mov	r1, #0
	strb	r1, [r2, r3]
	.loc 1 396 0
	ldr	r3, [r7, #24]
	ldr	r3, [r3, #112]
	ldrh	r1, [r3]
	ldr	r2, [r7, #24]
	mov	r3, #72
	strh	r1, [r2, r3]
	.loc 1 397 0
	ldr	r3, [r7, #28]
	lsr	r2, r3, #16
	ldr	r3, [r7, #24]
	str	r2, [r3, #124]
	.loc 1 398 0
	ldr	r3, [r7, #24]
	ldr	r3, [r3, #124]
	cmp	r3, #0
	bne	.L123
	.loc 1 399 0
	ldr	r3, [r7, #24]
	mov	r2, #1
	str	r2, [r3, #124]
.L123:
	.loc 1 400 0
	ldr	r3, [r7, #24]
	ldr	r3, [r3, #124]
	cmp	r3, #16
	bls	.L124
	.loc 1 401 0
	ldr	r3, [r7, #24]
	mov	r2, #15
	str	r2, [r3, #124]
.L124:
	.loc 1 403 0
	ldr	r3, [r7, #24]
	ldr	r2, [r3, #112]
	ldr	r3, [r7, #24]
	ldr	r3, [r3, #124]
	lsl	r3, r3, #1
	add	r3, r2, r3
	ldrh	r1, [r3]
	ldr	r2, [r7, #24]
	mov	r3, #140
	strh	r1, [r2, r3]
	.loc 1 404 0
	ldr	r2, [r7, #24]
	mov	r3, #144
	mov	r1, #0
	str	r1, [r2, r3]
	.loc 1 406 0
	ldr	r2, .L208+12
	mov	r3, #109
	ldrb	r3, [r2, r3]
	cmp	r3, #0
	beq	.L122
	ldr	r2, [r7, #28]
	ldr	r3, .L208+16
	cmp	r2, r3
	bhi	.L122
	mov	r3, r7
	add	r3, r3, #35
	ldrb	r3, [r3]
	cmp	r3, #0
	bne	.L122
	.loc 1 408 0
	ldr	r2, [r7, #24]
	mov	r3, #140
	ldrh	r3, [r2, r3]
	lsl	r3, r3, #16
	asr	r2, r3, #16
	ldr	r1, [r7, #24]
	mov	r3, #72
	ldrh	r3, [r1, r3]
	lsl	r3, r3, #16
	asr	r3, r3, #16
	sub	r3, r2, r3
	ldr	r2, [r7, #28]
	mul	r3, r2
	cmp	r3, #0
	bge	.L125
	ldr	r2, .L208+16
	add	r3, r3, r2
.L125:
	asr	r3, r3, #16
	mov	r1, r3
	ldr	r2, [r7, #24]
	mov	r3, #144
	str	r1, [r2, r3]
.L122:
	.loc 1 410 0
	ldr	r2, [r7, #24]
	mov	r3, #72
	ldrh	r3, [r2, r3]
	lsl	r3, r3, #16
	asr	r3, r3, #16
	ldr	r2, [r7, #24]
	ldrh	r2, [r2, #32]
	lsl	r2, r2, #16
	asr	r2, r2, #16
	mul	r3, r2
	cmp	r3, #0
	bge	.L126
	add	r3, r3, #127
.L126:
	asr	r3, r3, #7
	str	r3, [r7, #16]
	.loc 1 411 0
	ldr	r2, [r7, #24]
	mov	r3, #72
	ldrh	r3, [r2, r3]
	lsl	r3, r3, #16
	asr	r3, r3, #16
	ldr	r2, [r7, #24]
	ldrh	r2, [r2, #34]
	lsl	r2, r2, #16
	asr	r2, r2, #16
	mul	r3, r2
	cmp	r3, #0
	bge	.L127
	add	r3, r3, #127
.L127:
	asr	r3, r3, #7
	str	r3, [r7, #20]
.LBB14:
	.loc 1 413 0
	mov	r3, #0
	str	r3, [r7, #36]
	bl	.L128	@ far jump
.L194:
.LBB15:
	.loc 1 415 0
	ldr	r3, [r7, #28]
	str	r3, [r7, #40]
	.loc 1 417 0
	mov	r3, r7
	add	r3, r3, #35
	ldrb	r3, [r3]
	cmp	r3, #0
	beq	.L129
	.loc 1 418 0
	ldr	r3, [r7, #36]
	lsr	r2, r3, #1
	ldr	r3, .L208+20
	lsl	r2, r2, #2
	ldr	r3, [r2, r3]
	mov	r1, #128
	lsl	r1, r1, #16
	add	r3, r3, r1
	lsr	r3, r3, #16
	ldr	r2, [r7, #40]
	mul	r3, r2
	lsr	r3, r3, #7
	str	r3, [r7, #40]
.L129:
	.loc 1 420 0
	ldr	r3, [r7, #24]
	ldr	r2, [r3, #40]
	ldr	r3, [r7, #24]
	ldr	r3, [r3, #44]
	add	r2, r2, r3
	ldr	r3, [r7, #24]
	str	r2, [r3, #40]
	.loc 1 421 0
	ldr	r3, [r7, #24]
	ldr	r2, [r3, #40]
	ldr	r3, .L208+16
	cmp	r2, r3
	bhi	.LCB2188
	b	.L130	@long jump
.LCB2188:
.LBB16:
	.loc 1 423 0
	ldr	r3, [r7, #24]
	ldr	r3, [r3, #40]
	lsr	r3, r3, #16
	str	r3, [r7, #44]
	.loc 1 425 0
	ldr	r3, [r7, #24]
	ldr	r3, [r3]
	cmp	r3, #9
	bls	.LCB2197
	b	.L131	@long jump
.LCB2197:
	lsl	r2, r3, #2
	ldr	r3, .L208+24
	add	r3, r2, r3
	ldr	r3, [r3]
	mov	pc, r3
	.section	.rodata
	.align	2
.L141:
	.word	.L131
	.word	.L132
	.word	.L144
	.word	.L148
	.word	.L151
	.word	.L136
	.word	.L137
	.word	.L138
	.word	.L139
	.word	.L161
	.text
.L132:
	.loc 1 428 0
	ldr	r3, [r7, #24]
	ldr	r3, [r3, #40]
	lsl	r3, r3, #16
	lsr	r2, r3, #16
	ldr	r3, [r7, #24]
	str	r2, [r3, #40]
	.loc 1 429 0
	ldr	r3, [r7, #24]
	ldr	r3, [r3, #28]
	mov	r2, r3
	ldr	r3, [r7, #44]
	lsl	r3, r3, #1
	add	r3, r2, r3
	mov	r2, r3
	ldr	r3, [r7, #24]
	str	r2, [r3, #28]
	.loc 1 430 0
	ldr	r3, [r7, #24]
	ldr	r3, [r3, #28]
	lsl	r1, r3, #24
	ldr	r2, [r7, #24]
	mov	r3, #136
	str	r1, [r2, r3]
	.loc 1 432 0
	ldr	r3, [r7, #24]
	ldr	r3, [r3, #28]
	cmp	r3, #125
	bgt	.LCB2233
	b	.L199	@long jump
.LCB2233:
	.loc 1 434 0
	ldr	r3, [r7, #24]
	mov	r2, #127
	str	r2, [r3, #28]
	.loc 1 435 0
	ldr	r1, [r7, #24]
	mov	r2, #136
	mov	r3, #254
	lsl	r3, r3, #23
	str	r3, [r1, r2]
	.loc 1 436 0
	ldr	r3, [r7, #24]
	mov	r2, #2
	str	r2, [r3]
	.loc 1 437 0
	ldr	r3, [r7, #24]
	ldr	r3, [r3, #68]
	cmp	r3, #8
	beq	.L143
	.loc 1 440 0
	ldr	r3, [r7, #24]
	ldr	r1, [r3, #56]
	ldr	r3, [r7, #24]
	ldr	r2, [r3, #68]
	mov	r3, r2
	lsl	r3, r3, #7
	sub	r3, r3, r2
	lsr	r3, r3, #3
	mov	ip, r3
	ldr	r0, [r7, #24]
	mov	r3, #1
	neg	r3, r3
	mov	r2, #128
	lsl	r2, r2, #21
	str	r2, [sp]
	mov	r2, r3
	mov	r3, ip
	bl	_ZL13S9xSetEnvRateP7Channelmiij
	.loc 1 441 0
	b	.L131
.L143:
	.loc 1 443 0
	ldr	r3, [r7, #24]
	mov	r2, #3
	str	r2, [r3]
	.loc 1 444 0
	ldr	r3, [r7, #24]
	ldr	r1, [r3, #60]
	ldr	r0, [r7, #24]
	mov	r3, #1
	neg	r3, r3
	mov	r2, #128
	lsl	r2, r2, #22
	str	r2, [sp]
	mov	r2, r3
	mov	r3, #0
	bl	_ZL13S9xSetEnvRateP7Channelmiij
	.loc 1 446 0
	b	.L131
.L145:
	.loc 1 451 0
	ldr	r2, [r7, #24]
	mov	r3, #136
	ldr	r3, [r2, r3]
	asr	r2, r3, #8
	mov	r3, r2
	lsl	r3, r3, #8
	sub	r1, r3, r2
	ldr	r2, [r7, #24]
	mov	r3, #136
	str	r1, [r2, r3]
	.loc 1 452 0
	ldr	r3, [r7, #24]
	ldr	r3, [r3, #40]
	ldr	r1, .L208+28
	add	r2, r3, r1
	ldr	r3, [r7, #24]
	str	r2, [r3, #40]
.L144:
	.loc 1 449 0
	ldr	r3, [r7, #24]
	ldr	r3, [r3, #40]
	ldr	r2, .L208+16
	cmp	r2, r3
	sbc	r3, r3, r3
	neg	r3, r3
	lsl	r3, r3, #24
	lsr	r3, r3, #24
	cmp	r3, #0
	bne	.L145
	.loc 1 454 0
	ldr	r2, [r7, #24]
	mov	r3, #136
	ldr	r3, [r2, r3]
	asr	r2, r3, #24
	ldr	r3, [r7, #24]
	str	r2, [r3, #28]
	.loc 1 455 0
	ldr	r3, [r7, #24]
	ldr	r2, [r3, #28]
	ldr	r3, [r7, #24]
	ldrh	r3, [r3, #36]
	lsl	r3, r3, #16
	asr	r3, r3, #16
	cmp	r2, r3
	ble	.LCB2329
	b	.L200	@long jump
.LCB2329:
	.loc 1 457 0
	ldr	r3, [r7, #24]
	ldr	r3, [r3, #28]
	cmp	r3, #0
	bgt	.L147
	.loc 1 459 0
	ldr	r2, [r7, #12]
	ldr	r3, [r7, #24]
	mov	r0, r2
	mov	r1, r3
	bl	_ZL20S9xAPUSetEndOfSampleiP7Channel
	.loc 1 460 0
	bl	.L121	@ far jump
.L147:
	.loc 1 462 0
	ldr	r3, [r7, #24]
	mov	r2, #3
	str	r2, [r3]
	.loc 1 463 0
	ldr	r3, [r7, #24]
	ldr	r1, [r3, #60]
	ldr	r0, [r7, #24]
	mov	r3, #1
	neg	r3, r3
	mov	r2, #128
	lsl	r2, r2, #22
	str	r2, [sp]
	mov	r2, r3
	mov	r3, #0
	bl	_ZL13S9xSetEnvRateP7Channelmiij
	.loc 1 465 0
	b	.L131
.L149:
	.loc 1 470 0
	ldr	r2, [r7, #24]
	mov	r3, #136
	ldr	r3, [r2, r3]
	asr	r2, r3, #8
	mov	r3, r2
	lsl	r3, r3, #8
	sub	r1, r3, r2
	ldr	r2, [r7, #24]
	mov	r3, #136
	str	r1, [r2, r3]
	.loc 1 471 0
	ldr	r3, [r7, #24]
	ldr	r3, [r3, #40]
	ldr	r1, .L208+28
	add	r2, r3, r1
	ldr	r3, [r7, #24]
	str	r2, [r3, #40]
.L148:
	.loc 1 468 0
	ldr	r3, [r7, #24]
	ldr	r3, [r3, #40]
	ldr	r2, .L208+16
	cmp	r2, r3
	sbc	r3, r3, r3
	neg	r3, r3
	lsl	r3, r3, #24
	lsr	r3, r3, #24
	cmp	r3, #0
	bne	.L149
	.loc 1 473 0
	ldr	r2, [r7, #24]
	mov	r3, #136
	ldr	r3, [r2, r3]
	asr	r2, r3, #24
	ldr	r3, [r7, #24]
	str	r2, [r3, #28]
	.loc 1 474 0
	ldr	r3, [r7, #24]
	ldr	r3, [r3, #28]
	cmp	r3, #0
	ble	.LCB2397
	b	.L201	@long jump
.LCB2397:
	.loc 1 476 0
	ldr	r2, [r7, #12]
	ldr	r3, [r7, #24]
	mov	r0, r2
	mov	r1, r3
	bl	_ZL20S9xAPUSetEndOfSampleiP7Channel
	.loc 1 477 0
	b	.L121
.L209:
	.align	2
.L208:
	.word	SoundData
	.word	APU
	.word	so
	.word	Settings
	.word	65535
	.word	_ZL4wave
	.word	.L141
	.word	-65536
.L152:
	.loc 1 484 0
	ldr	r2, [r7, #24]
	mov	r3, #136
	ldr	r3, [r2, r3]
	ldr	r2, .L210
	add	r1, r3, r2
	ldr	r2, [r7, #24]
	mov	r3, #136
	str	r1, [r2, r3]
	.loc 1 485 0
	ldr	r3, [r7, #24]
	ldr	r3, [r3, #40]
	ldr	r1, .L210+4
	add	r2, r3, r1
	ldr	r3, [r7, #24]
	str	r2, [r3, #40]
.L151:
	.loc 1 482 0
	ldr	r3, [r7, #24]
	ldr	r3, [r3, #40]
	ldr	r2, .L210+8
	cmp	r2, r3
	sbc	r3, r3, r3
	neg	r3, r3
	lsl	r3, r3, #24
	lsr	r3, r3, #24
	cmp	r3, #0
	bne	.L152
	.loc 1 487 0
	ldr	r2, [r7, #24]
	mov	r3, #136
	ldr	r3, [r2, r3]
	asr	r2, r3, #24
	ldr	r3, [r7, #24]
	str	r2, [r3, #28]
	.loc 1 488 0
	ldr	r3, [r7, #24]
	ldr	r3, [r3, #28]
	cmp	r3, #0
	ble	.LCB2454
	b	.L202	@long jump
.LCB2454:
	.loc 1 490 0
	ldr	r2, [r7, #12]
	ldr	r3, [r7, #24]
	mov	r0, r2
	mov	r1, r3
	bl	_ZL20S9xAPUSetEndOfSampleiP7Channel
	.loc 1 491 0
	b	.L121
.L137:
	.loc 1 496 0
	ldr	r3, [r7, #24]
	ldr	r3, [r3, #40]
	lsl	r3, r3, #16
	lsr	r2, r3, #16
	ldr	r3, [r7, #24]
	str	r2, [r3, #40]
	.loc 1 497 0
	ldr	r3, [r7, #24]
	ldr	r3, [r3, #28]
	mov	r2, r3
	ldr	r3, [r7, #44]
	lsl	r3, r3, #1
	add	r3, r2, r3
	mov	r2, r3
	ldr	r3, [r7, #24]
	str	r2, [r3, #28]
	.loc 1 498 0
	ldr	r3, [r7, #24]
	ldr	r3, [r3, #28]
	lsl	r1, r3, #24
	ldr	r2, [r7, #24]
	mov	r3, #136
	str	r1, [r2, r3]
	.loc 1 500 0
	ldr	r3, [r7, #24]
	ldr	r3, [r3, #28]
	cmp	r3, #125
	bgt	.LCB2488
	b	.L203	@long jump
.LCB2488:
	.loc 1 502 0
	ldr	r3, [r7, #24]
	mov	r2, #127
	str	r2, [r3, #28]
	.loc 1 503 0
	ldr	r1, [r7, #24]
	mov	r2, #136
	mov	r3, #254
	lsl	r3, r3, #23
	str	r3, [r1, r2]
	.loc 1 504 0
	ldr	r3, [r7, #24]
	mov	r2, #5
	str	r2, [r3]
	.loc 1 505 0
	ldr	r2, [r7, #24]
	mov	r3, #132
	mov	r1, #5
	str	r1, [r2, r3]
	.loc 1 506 0
	ldr	r2, [r7, #24]
	mov	r3, #1
	neg	r3, r3
	mov	r1, #0
	str	r1, [sp]
	mov	r0, r2
	mov	r1, #0
	mov	r2, r3
	mov	r3, #0
	bl	_ZL13S9xSetEnvRateP7Channelmiij
	.loc 1 508 0
	b	.L131
.L138:
	.loc 1 511 0
	ldr	r3, [r7, #24]
	ldr	r3, [r3, #28]
	cmp	r3, #94
	ble	.L155
	.loc 1 513 0
	b	.L156
.L157:
	.loc 1 515 0
	ldr	r2, [r7, #24]
	mov	r3, #136
	ldr	r3, [r2, r3]
	mov	r2, #254
	lsl	r2, r2, #15
	add	r1, r3, r2
	ldr	r2, [r7, #24]
	mov	r3, #136
	str	r1, [r2, r3]
	.loc 1 516 0
	ldr	r3, [r7, #24]
	ldr	r3, [r3, #40]
	ldr	r1, .L210+4
	add	r2, r3, r1
	ldr	r3, [r7, #24]
	str	r2, [r3, #40]
.L156:
	.loc 1 513 0
	ldr	r3, [r7, #24]
	ldr	r3, [r3, #40]
	ldr	r2, .L210+8
	cmp	r2, r3
	sbc	r3, r3, r3
	neg	r3, r3
	lsl	r3, r3, #24
	lsr	r3, r3, #24
	cmp	r3, #0
	bne	.L157
	.loc 1 518 0
	ldr	r2, [r7, #24]
	mov	r3, #136
	ldr	r3, [r2, r3]
	asr	r2, r3, #24
	ldr	r3, [r7, #24]
	str	r2, [r3, #28]
	b	.L158
.L155:
	.loc 1 522 0
	ldr	r3, [r7, #24]
	ldr	r3, [r3, #40]
	lsl	r3, r3, #16
	lsr	r2, r3, #16
	ldr	r3, [r7, #24]
	str	r2, [r3, #40]
	.loc 1 523 0
	ldr	r3, [r7, #24]
	ldr	r3, [r3, #28]
	mov	r2, r3
	ldr	r3, [r7, #44]
	lsl	r3, r3, #1
	add	r3, r2, r3
	mov	r2, r3
	ldr	r3, [r7, #24]
	str	r2, [r3, #28]
	.loc 1 524 0
	ldr	r3, [r7, #24]
	ldr	r3, [r3, #28]
	lsl	r1, r3, #24
	ldr	r2, [r7, #24]
	mov	r3, #136
	str	r1, [r2, r3]
.L158:
	.loc 1 527 0
	ldr	r3, [r7, #24]
	ldr	r3, [r3, #28]
	cmp	r3, #125
	bgt	.LCB2588
	b	.L204	@long jump
.LCB2588:
	.loc 1 529 0
	ldr	r3, [r7, #24]
	mov	r2, #127
	str	r2, [r3, #28]
	.loc 1 530 0
	ldr	r1, [r7, #24]
	mov	r2, #136
	mov	r3, #254
	lsl	r3, r3, #23
	str	r3, [r1, r2]
	.loc 1 531 0
	ldr	r3, [r7, #24]
	mov	r2, #5
	str	r2, [r3]
	.loc 1 532 0
	ldr	r2, [r7, #24]
	mov	r3, #132
	mov	r1, #5
	str	r1, [r2, r3]
	.loc 1 533 0
	ldr	r2, [r7, #24]
	mov	r3, #1
	neg	r3, r3
	mov	r1, #0
	str	r1, [sp]
	mov	r0, r2
	mov	r1, #0
	mov	r2, r3
	mov	r3, #0
	bl	_ZL13S9xSetEnvRateP7Channelmiij
	.loc 1 535 0
	b	.L131
.L139:
	.loc 1 538 0
	ldr	r3, [r7, #24]
	ldr	r3, [r3, #40]
	lsl	r3, r3, #16
	lsr	r2, r3, #16
	ldr	r3, [r7, #24]
	str	r2, [r3, #40]
	.loc 1 539 0
	ldr	r3, [r7, #24]
	ldr	r3, [r3, #28]
	mov	r2, r3
	ldr	r3, [r7, #44]
	lsl	r3, r3, #1
	sub	r3, r2, r3
	mov	r2, r3
	ldr	r3, [r7, #24]
	str	r2, [r3, #28]
	.loc 1 540 0
	ldr	r3, [r7, #24]
	ldr	r3, [r3, #28]
	lsl	r1, r3, #24
	ldr	r2, [r7, #24]
	mov	r3, #136
	str	r1, [r2, r3]
	.loc 1 541 0
	ldr	r3, [r7, #24]
	ldr	r3, [r3, #28]
	cmp	r3, #0
	bgt	.L205
	.loc 1 543 0
	ldr	r2, [r7, #12]
	ldr	r3, [r7, #24]
	mov	r0, r2
	mov	r1, r3
	bl	_ZL20S9xAPUSetEndOfSampleiP7Channel
	.loc 1 544 0
	b	.L121
.L162:
	.loc 1 551 0
	ldr	r2, [r7, #24]
	mov	r3, #136
	ldr	r3, [r2, r3]
	asr	r2, r3, #8
	mov	r3, r2
	lsl	r3, r3, #8
	sub	r1, r3, r2
	ldr	r2, [r7, #24]
	mov	r3, #136
	str	r1, [r2, r3]
	.loc 1 552 0
	ldr	r3, [r7, #24]
	ldr	r3, [r3, #40]
	ldr	r1, .L210+4
	add	r2, r3, r1
	ldr	r3, [r7, #24]
	str	r2, [r3, #40]
.L161:
	.loc 1 549 0
	ldr	r3, [r7, #24]
	ldr	r3, [r3, #40]
	ldr	r2, .L210+8
	cmp	r2, r3
	sbc	r3, r3, r3
	neg	r3, r3
	lsl	r3, r3, #24
	lsr	r3, r3, #24
	cmp	r3, #0
	bne	.L162
	.loc 1 554 0
	ldr	r2, [r7, #24]
	mov	r3, #136
	ldr	r3, [r2, r3]
	asr	r2, r3, #24
	ldr	r3, [r7, #24]
	str	r2, [r3, #28]
	.loc 1 555 0
	ldr	r3, [r7, #24]
	ldr	r3, [r3, #28]
	cmp	r3, #0
	bgt	.L206
	.loc 1 557 0
	ldr	r2, [r7, #12]
	ldr	r3, [r7, #24]
	mov	r0, r2
	mov	r1, r3
	bl	_ZL20S9xAPUSetEndOfSampleiP7Channel
	.loc 1 558 0
	b	.L121
.L136:
	.loc 1 563 0
	ldr	r2, [r7, #24]
	mov	r3, #1
	neg	r3, r3
	mov	r1, #0
	str	r1, [sp]
	mov	r0, r2
	mov	r1, #0
	mov	r2, r3
	mov	r3, #0
	bl	_ZL13S9xSetEnvRateP7Channelmiij
	b	.L131
.L199:
	.loc 1 446 0
	mov	r8, r8
	b	.L131
.L200:
	.loc 1 465 0
	mov	r8, r8
	b	.L131
.L201:
	.loc 1 479 0
	mov	r8, r8
	b	.L131
.L202:
	.loc 1 493 0
	mov	r8, r8
	b	.L131
.L203:
	.loc 1 508 0
	mov	r8, r8
	b	.L131
.L204:
	.loc 1 535 0
	mov	r8, r8
	b	.L131
.L205:
	.loc 1 546 0
	mov	r8, r8
	b	.L131
.L206:
	.loc 1 560 0
	mov	r8, r8
.L131:
	.loc 1 566 0
	ldr	r3, [r7, #24]
	ldr	r3, [r3, #28]
	ldr	r2, [r7, #24]
	ldrh	r2, [r2, #8]
	lsl	r2, r2, #16
	asr	r2, r2, #16
	mul	r3, r2
	cmp	r3, #0
	bge	.L164
	add	r3, r3, #127
.L164:
	asr	r3, r3, #7
	lsl	r3, r3, #16
	lsr	r2, r3, #16
	ldr	r3, [r7, #24]
	strh	r2, [r3, #32]
	.loc 1 567 0
	ldr	r3, [r7, #24]
	ldr	r3, [r3, #28]
	ldr	r2, [r7, #24]
	ldrh	r2, [r2, #10]
	lsl	r2, r2, #16
	asr	r2, r2, #16
	mul	r3, r2
	cmp	r3, #0
	bge	.L165
	add	r3, r3, #127
.L165:
	asr	r3, r3, #7
	lsl	r3, r3, #16
	lsr	r2, r3, #16
	ldr	r3, [r7, #24]
	strh	r2, [r3, #34]
	.loc 1 568 0
	ldr	r2, [r7, #24]
	mov	r3, #72
	ldrh	r3, [r2, r3]
	lsl	r3, r3, #16
	asr	r3, r3, #16
	ldr	r2, [r7, #24]
	ldrh	r2, [r2, #32]
	lsl	r2, r2, #16
	asr	r2, r2, #16
	mul	r3, r2
	cmp	r3, #0
	bge	.L166
	add	r3, r3, #127
.L166:
	asr	r3, r3, #7
	str	r3, [r7, #16]
	.loc 1 569 0
	ldr	r2, [r7, #24]
	mov	r3, #72
	ldrh	r3, [r2, r3]
	lsl	r3, r3, #16
	asr	r3, r3, #16
	ldr	r2, [r7, #24]
	ldrh	r2, [r2, #34]
	lsl	r2, r2, #16
	asr	r2, r2, #16
	mul	r3, r2
	cmp	r3, #0
	bge	.L167
	add	r3, r3, #127
.L167:
	asr	r3, r3, #7
	str	r3, [r7, #20]
.L130:
.LBE16:
	.loc 1 572 0
	ldr	r3, [r7, #24]
	ldr	r2, [r3, #20]
	ldr	r3, [r7, #40]
	add	r2, r2, r3
	ldr	r3, [r7, #24]
	str	r2, [r3, #20]
	.loc 1 573 0
	ldr	r3, [r7, #24]
	ldr	r2, [r3, #20]
	ldr	r3, .L210+8
	cmp	r2, r3
	bhi	.LCB2831
	b	.L168	@long jump
.LCB2831:
	.loc 1 575 0
	ldr	r3, [r7, #24]
	ldr	r3, [r3, #20]
	lsr	r3, r3, #16
	str	r3, [r7, #16]
	.loc 1 576 0
	ldr	r3, [r7, #24]
	ldr	r2, [r3, #124]
	ldr	r3, [r7, #16]
	add	r2, r2, r3
	ldr	r3, [r7, #24]
	str	r2, [r3, #124]
	.loc 1 577 0
	ldr	r3, [r7, #24]
	ldr	r3, [r3, #20]
	lsl	r3, r3, #16
	lsr	r2, r3, #16
	ldr	r3, [r7, #24]
	str	r2, [r3, #20]
	.loc 1 579 0
	ldr	r2, [r7, #24]
	mov	r3, #140
	ldrh	r1, [r2, r3]
	ldr	r2, [r7, #24]
	mov	r3, #72
	strh	r1, [r2, r3]
	.loc 1 580 0
	ldr	r3, [r7, #24]
	ldr	r3, [r3, #124]
	cmp	r3, #15
	bls	.L169
	.loc 1 582 0
	ldr	r3, [r7, #24]
	ldr	r2, [r3, #124]
	ldr	r3, .L210+12
	cmp	r2, r3
	bls	.L170
	.loc 1 584 0
	ldr	r2, [r7, #12]
	ldr	r3, [r7, #24]
	mov	r0, r2
	mov	r1, r3
	bl	_ZL20S9xAPUSetEndOfSampleiP7Channel
	.loc 1 585 0
	b	.L121
.L170:
	.loc 1 589 0
	ldr	r3, [r7, #24]
	ldr	r3, [r3, #124]
	mov	r2, r3
	sub	r2, r2, #16
	ldr	r3, [r7, #24]
	str	r2, [r3, #124]
	.loc 1 590 0
	ldr	r2, [r7, #24]
	mov	r3, #118
	ldrb	r3, [r2, r3]
	cmp	r3, #0
	beq	.L171
	.loc 1 592 0
	ldr	r3, [r7, #24]
	ldrb	r3, [r3, #24]
	cmp	r3, #0
	bne	.L172
	.loc 1 594 0
	ldr	r3, [r7, #24]
	ldr	r2, .L210+16
	str	r2, [r3, #124]
	.loc 1 595 0
	ldr	r2, [r7, #24]
	mov	r3, #72
	ldrh	r1, [r2, r3]
	ldr	r2, [r7, #24]
	mov	r3, #140
	strh	r1, [r2, r3]
	.loc 1 596 0
	b	.L173
.L211:
	.align	2
.L210:
	.word	-8323072
	.word	-65536
	.word	65535
	.word	16777214
	.word	16777215
.L172:
.LBB17:
	.loc 1 600 0
	ldr	r3, [r7, #12]
	mov	r0, r3
	bl	_ZL13S9xAPUSetEndXi
	.loc 1 601 0
	ldr	r2, [r7, #24]
	mov	r3, #118
	mov	r1, #0
	strb	r1, [r2, r3]
	.loc 1 602 0
	ldr	r2, [r7, #24]
	mov	r3, #116
	ldrh	r3, [r2, r3]
	mov	r0, r3
	bl	_ZL19S9xGetSampleAddressi
	mov	r3, r0
	str	r3, [r7, #48]
	.loc 1 603 0
	ldr	r3, [r7, #48]
	add	r3, r3, #2
	ldrh	r3, [r3]
	mov	r2, r3
	ldr	r3, [r7, #24]
	str	r2, [r3, #120]
.L171:
.LBE17:
	.loc 1 606 0
	ldr	r3, [r7, #24]
	mov	r0, r3
	bl	_ZL11DecodeBlockP7Channel
	.loc 1 587 0
	ldr	r3, [r7, #24]
	ldr	r3, [r3, #124]
	mov	r2, #15
	cmp	r2, r3
	sbc	r3, r3, r3
	neg	r3, r3
	lsl	r3, r3, #24
	lsr	r3, r3, #24
	cmp	r3, #0
	bne	.L170
.L173:
	.loc 1 608 0
	ldr	r3, [r7, #24]
	ldr	r2, [r3, #124]
	ldr	r3, .L212
	cmp	r2, r3
	bhi	.L207
	.loc 1 609 0
	ldr	r3, [r7, #24]
	ldr	r2, [r3, #112]
	ldr	r3, [r7, #24]
	ldr	r3, [r3, #124]
	lsl	r3, r3, #1
	add	r3, r2, r3
	ldrh	r1, [r3]
	ldr	r2, [r7, #24]
	mov	r3, #140
	strh	r1, [r2, r3]
	b	.L175
.L169:
	.loc 1 612 0
	ldr	r3, [r7, #24]
	ldr	r2, [r3, #112]
	ldr	r3, [r7, #24]
	ldr	r3, [r3, #124]
	lsl	r3, r3, #1
	add	r3, r2, r3
	ldrh	r1, [r3]
	ldr	r2, [r7, #24]
	mov	r3, #140
	strh	r1, [r2, r3]
	b	.L175
.L207:
	.loc 1 609 0
	mov	r8, r8
.L175:
	.loc 1 614 0
	ldr	r3, [r7, #24]
	ldr	r3, [r3, #4]
	cmp	r3, #0
	bne	.L182
	.loc 1 616 0
	ldr	r2, .L212+4
	mov	r3, #109
	ldrb	r3, [r2, r3]
	cmp	r3, #0
	beq	.L177
	ldr	r2, [r7, #40]
	ldr	r3, .L212+8
	cmp	r2, r3
	bhi	.L177
	mov	r3, r7
	add	r3, r3, #35
	ldrb	r3, [r3]
	cmp	r3, #0
	bne	.L177
	.loc 1 619 0
	ldr	r2, [r7, #24]
	mov	r3, #140
	ldrh	r3, [r2, r3]
	lsl	r3, r3, #16
	asr	r2, r3, #16
	ldr	r1, [r7, #24]
	mov	r3, #72
	ldrh	r3, [r1, r3]
	lsl	r3, r3, #16
	asr	r3, r3, #16
	sub	r3, r2, r3
	ldr	r2, [r7, #40]
	mul	r3, r2
	cmp	r3, #0
	bge	.L178
	ldr	r2, .L212+8
	add	r3, r3, r2
.L178:
	asr	r3, r3, #16
	mov	r1, r3
	ldr	r2, [r7, #24]
	mov	r3, #144
	str	r1, [r2, r3]
	.loc 1 621 0
	ldr	r2, [r7, #24]
	mov	r3, #72
	ldrh	r3, [r2, r3]
	lsl	r3, r3, #16
	lsr	r2, r3, #16
	ldr	r1, [r7, #24]
	mov	r3, #140
	ldrh	r3, [r1, r3]
	lsl	r3, r3, #16
	asr	r1, r3, #16
	ldr	r0, [r7, #24]
	mov	r3, #72
	ldrh	r3, [r0, r3]
	lsl	r3, r3, #16
	asr	r3, r3, #16
	sub	r1, r1, r3
	ldr	r3, [r7, #24]
	ldr	r3, [r3, #20]
	mul	r3, r1
	cmp	r3, #0
	bge	.L179
	ldr	r1, .L212+8
	add	r3, r3, r1
.L179:
	asr	r3, r3, #16
	lsl	r3, r3, #16
	lsr	r3, r3, #16
	add	r3, r2, r3
	lsl	r3, r3, #16
	lsr	r3, r3, #16
	mov	r1, r3
	ldr	r2, [r7, #24]
	mov	r3, #72
	strh	r1, [r2, r3]
	.loc 1 616 0
	mov	r8, r8
	b	.L181
.L177:
	.loc 1 624 0
	ldr	r2, [r7, #24]
	mov	r3, #144
	mov	r1, #0
	str	r1, [r2, r3]
	b	.L181
.L184:
	.loc 1 629 0
	ldr	r3, .L212+12
	ldr	r3, [r3, #8]
	lsl	r2, r3, #1
	ldr	r3, .L212+12
	str	r2, [r3, #8]
	ldr	r3, .L212+12
	ldr	r3, [r3, #8]
	lsr	r3, r3, #31
	lsl	r3, r3, #24
	lsr	r3, r3, #24
	cmp	r3, #0
	beq	.L183
	.loc 1 630 0
	ldr	r3, .L212+12
	ldr	r2, [r3, #8]
	ldr	r3, .L212+16
	eor	r2, r2, r3
	ldr	r3, .L212+12
	str	r2, [r3, #8]
.L183:
	.loc 1 628 0
	ldr	r3, [r7, #16]
	sub	r3, r3, #1
	str	r3, [r7, #16]
.L182:
	ldr	r3, [r7, #16]
	asr	r2, r3, #31
	sub	r3, r2, r3
	lsr	r3, r3, #31
	lsl	r3, r3, #24
	lsr	r3, r3, #24
	cmp	r3, #0
	bne	.L184
	.loc 1 631 0
	ldr	r3, .L212+12
	ldr	r3, [r3, #8]
	lsl	r3, r3, #17
	asr	r3, r3, #17
	lsl	r3, r3, #16
	lsr	r1, r3, #16
	ldr	r2, [r7, #24]
	mov	r3, #72
	strh	r1, [r2, r3]
	.loc 1 632 0
	ldr	r2, [r7, #24]
	mov	r3, #144
	mov	r1, #0
	str	r1, [r2, r3]
.L181:
	.loc 1 635 0
	ldr	r2, [r7, #24]
	mov	r3, #72
	ldrh	r3, [r2, r3]
	lsl	r3, r3, #16
	asr	r3, r3, #16
	ldr	r2, [r7, #24]
	ldrh	r2, [r2, #32]
	lsl	r2, r2, #16
	asr	r2, r2, #16
	mul	r3, r2
	cmp	r3, #0
	bge	.L185
	add	r3, r3, #127
.L185:
	asr	r3, r3, #7
	str	r3, [r7, #16]
	.loc 1 636 0
	ldr	r2, [r7, #24]
	mov	r3, #72
	ldrh	r3, [r2, r3]
	lsl	r3, r3, #16
	asr	r3, r3, #16
	ldr	r2, [r7, #24]
	ldrh	r2, [r2, #34]
	lsl	r2, r2, #16
	asr	r2, r2, #16
	mul	r3, r2
	cmp	r3, #0
	bge	.L186
	add	r3, r3, #127
.L186:
	asr	r3, r3, #7
	str	r3, [r7, #20]
	b	.L187
.L168:
	.loc 1 640 0
	ldr	r2, [r7, #24]
	mov	r3, #144
	ldr	r3, [r2, r3]
	cmp	r3, #0
	beq	.L187
.LBB18:
	.loc 1 642 0
	ldr	r2, [r7, #24]
	mov	r3, #72
	ldrh	r3, [r2, r3]
	lsl	r3, r3, #16
	asr	r2, r3, #16
	ldr	r1, [r7, #24]
	mov	r3, #144
	ldr	r3, [r1, r3]
	add	r3, r2, r3
	str	r3, [r7, #52]
	.loc 1 644 0
	ldr	r2, [r7, #52]
	ldr	r3, .L212+20
	cmp	r2, r3
	bge	.L188
	ldr	r3, .L212+20
	str	r3, [r7, #52]
	b	.L189
.L188:
	ldr	r2, [r7, #52]
	ldr	r3, .L212+24
	cmp	r2, r3
	ble	.L189
	ldr	r3, .L212+24
	str	r3, [r7, #52]
.L189:
	.loc 1 645 0
	ldr	r3, [r7, #52]
	lsl	r3, r3, #16
	lsr	r1, r3, #16
	ldr	r2, [r7, #24]
	mov	r3, #72
	strh	r1, [r2, r3]
	.loc 1 646 0
	ldr	r2, [r7, #24]
	mov	r3, #72
	ldrh	r3, [r2, r3]
	lsl	r3, r3, #16
	asr	r3, r3, #16
	ldr	r2, [r7, #24]
	ldrh	r2, [r2, #32]
	lsl	r2, r2, #16
	asr	r2, r2, #16
	mul	r3, r2
	cmp	r3, #0
	bge	.L190
	add	r3, r3, #127
.L190:
	asr	r3, r3, #7
	str	r3, [r7, #16]
	.loc 1 647 0
	ldr	r2, [r7, #24]
	mov	r3, #72
	ldrh	r3, [r2, r3]
	lsl	r3, r3, #16
	asr	r3, r3, #16
	ldr	r2, [r7, #24]
	ldrh	r2, [r2, #34]
	lsl	r2, r2, #16
	asr	r2, r2, #16
	mul	r3, r2
	cmp	r3, #0
	bge	.L191
	add	r3, r3, #127
.L191:
	asr	r3, r3, #7
	str	r3, [r7, #20]
.L187:
.LBE18:
	.loc 1 651 0
	ldr	r3, [r7, #12]
	add	r3, r3, #1
	ldr	r2, [r7, #8]
	asr	r2, r2, r3
	mov	r3, #1
	and	r3, r3, r2
	lsl	r3, r3, #24
	lsr	r3, r3, #24
	cmp	r3, #0
	beq	.L192
	.loc 1 652 0
	ldr	r3, [r7, #36]
	lsr	r2, r3, #1
	ldr	r1, [r7, #24]
	mov	r3, #72
	ldrh	r3, [r1, r3]
	lsl	r3, r3, #16
	asr	r1, r3, #16
	ldr	r3, [r7, #24]
	ldr	r3, [r3, #28]
	mul	r1, r3
	ldr	r3, .L212+28
	lsl	r2, r2, #2
	str	r1, [r2, r3]
.L192:
	.loc 1 654 0
	ldr	r2, [r7, #36]
	ldr	r1, [r7, #36]
	ldr	r3, .L212+32
	lsl	r1, r1, #2
	ldr	r1, [r1, r3]
	ldr	r3, [r7, #16]
	add	r1, r1, r3
	ldr	r3, .L212+32
	lsl	r2, r2, #2
	str	r1, [r2, r3]
	.loc 1 655 0
	ldr	r3, [r7, #36]
	add	r2, r3, #1
	ldr	r3, [r7, #36]
	add	r1, r3, #1
	ldr	r3, .L212+32
	lsl	r1, r1, #2
	ldr	r1, [r1, r3]
	ldr	r3, [r7, #20]
	add	r1, r1, r3
	ldr	r3, .L212+32
	lsl	r2, r2, #2
	str	r1, [r2, r3]
	.loc 1 656 0
	ldr	r2, [r7, #24]
	mov	r3, #128
	ldr	r3, [r2, r3]
	cmp	r3, #0
	beq	.L193
	.loc 1 658 0
	ldr	r2, [r7, #24]
	mov	r3, #128
	ldr	r2, [r2, r3]
	ldr	r3, [r7, #36]
	lsl	r3, r3, #2
	add	r3, r2, r3
	ldr	r1, [r7, #24]
	mov	r2, #128
	ldr	r1, [r1, r2]
	ldr	r2, [r7, #36]
	lsl	r2, r2, #2
	add	r2, r1, r2
	ldr	r1, [r2]
	ldr	r2, [r7, #16]
	add	r2, r1, r2
	str	r2, [r3]
	.loc 1 659 0
	ldr	r2, [r7, #24]
	mov	r3, #128
	ldr	r2, [r2, r3]
	ldr	r3, [r7, #36]
	add	r3, r3, #1
	lsl	r3, r3, #2
	add	r3, r2, r3
	ldr	r1, [r7, #24]
	mov	r2, #128
	ldr	r1, [r1, r2]
	ldr	r2, [r7, #36]
	add	r2, r2, #1
	lsl	r2, r2, #2
	add	r2, r1, r2
	ldr	r1, [r2]
	ldr	r2, [r7, #20]
	add	r2, r1, r2
	str	r2, [r3]
.L193:
.LBE15:
	.loc 1 413 0
	ldr	r3, [r7, #36]
	add	r3, r3, #2
	str	r3, [r7, #36]
.L128:
	ldr	r3, [r7, #4]
	ldr	r2, [r7, #36]
	cmp	r2, r3
	sbc	r3, r3, r3
	neg	r3, r3
	lsl	r3, r3, #24
	lsr	r3, r3, #24
	cmp	r3, #0
	beq	.LCB3337
	bl	.L194	@far jump
.LCB3337:
	b	.L121
.L197:
.LBE14:
	.loc 1 386 0
	mov	r8, r8
	b	.L121
.L198:
	mov	r8, r8
.L121:
.LBE13:
	.loc 1 379 0
	ldr	r3, [r7, #12]
	add	r3, r3, #1
	str	r3, [r7, #12]
.L118:
	ldr	r2, [r7, #12]
	mov	r1, #7
	mov	r3, #0
	cmp	r1, r2
	adc	r3, r3, r3
	lsl	r3, r3, #24
	lsr	r3, r3, #24
	cmp	r3, #0
	beq	.LCB3364
	bl	.L195	@far jump
.LCB3364:
.LBE12:
.LBE11:
	.loc 1 664 0
	mov	sp, r7
	add	sp, sp, #56
	@ sp needed for prologue
	pop	{r7, pc}
.L213:
	.align	2
.L212:
	.word	16777214
	.word	Settings
	.word	65535
	.word	so
	.word	262145
	.word	-32768
	.word	32767
	.word	_ZL4wave
	.word	MixBuffer
.LFE44:
	.cantunwind
	.fnend
	.size	_ZL9MixStereoi, .-_ZL9MixStereoi
	.align	2
	.code	16
	.thumb_func
	.type	_ZL7MixMonoi, %function
_ZL7MixMonoi:
	.fnstart
.LFB45:
	.loc 1 667 0
	.save	{r7, lr}
	push	{r7, lr}
.LCFI51:
	sub	sp, sp, #64
.LCFI52:
	add	r7, sp, #8
.LCFI53:
	str	r0, [r7, #4]
.LBB19:
	.loc 1 668 0
	ldr	r3, .L300
	ldr	r3, [r3, #32]
	mov	r2, r3
	ldr	r1, .L300+4
	mov	r3, #72
	ldrb	r3, [r1, r3]
	mvn	r3, r3
	and	r3, r3, r2
	str	r3, [r7, #12]
.LBB20:
	.loc 1 670 0
	mov	r3, #0
	str	r3, [r7, #16]
	bl	.L215	@ far jump
.L287:
.LBB21:
	.loc 1 672 0
	ldr	r3, [r7, #16]
	mov	r2, #212
	mul	r3, r2
	mov	r2, r3
	add	r2, r2, #48
	ldr	r3, .L300
	add	r3, r2, r3
	str	r3, [r7, #20]
	.loc 1 673 0
	ldr	r3, [r7, #20]
	ldr	r3, [r3, #16]
	str	r3, [r7, #24]
	.loc 1 675 0
	ldr	r3, [r7, #20]
	ldr	r3, [r3]
	cmp	r3, #0
	bne	.LCB3428
	bl	.L289	@far jump
.LCB3428:
	ldr	r3, .L300+8
	ldrb	r3, [r3, #6]
	mov	r2, r3
	ldr	r3, [r7, #16]
	asr	r2, r2, r3
	mov	r3, #1
	and	r3, r3, r2
	lsl	r3, r3, #24
	lsr	r2, r3, #24
	mov	r3, #1
	eor	r3, r3, r2
	lsl	r3, r3, #24
	lsr	r3, r3, #24
	cmp	r3, #0
	beq	.LCB3443
	bl	.L290	@far jump
.LCB3443:
.L217:
	.loc 1 680 0
	ldr	r3, [r7, #16]
	mov	r2, #1
	mov	r1, r2
	lsl	r1, r1, r3
	mov	r3, r1
	lsl	r3, r3, #24
	lsr	r2, r3, #24
	ldr	r3, [r7, #12]
	lsl	r3, r3, #24
	lsr	r3, r3, #24
	and	r3, r3, r2
	lsl	r3, r3, #24
	lsr	r2, r3, #24
	mov	r3, r7
	add	r3, r3, #31
	strb	r2, [r3]
	.loc 1 682 0
	ldr	r2, [r7, #20]
	mov	r3, #119
	ldrb	r3, [r2, r3]
	cmp	r3, #0
	beq	.L219
	.loc 1 684 0
	ldr	r3, [r7, #20]
	mov	r0, r3
	bl	_ZL11DecodeBlockP7Channel
	.loc 1 685 0
	ldr	r2, [r7, #20]
	mov	r3, #119
	mov	r1, #0
	strb	r1, [r2, r3]
	.loc 1 686 0
	ldr	r3, [r7, #20]
	ldr	r3, [r3, #112]
	ldrh	r1, [r3]
	ldr	r2, [r7, #20]
	mov	r3, #72
	strh	r1, [r2, r3]
	.loc 1 687 0
	ldr	r3, [r7, #24]
	lsr	r2, r3, #16
	ldr	r3, [r7, #20]
	str	r2, [r3, #124]
	.loc 1 688 0
	ldr	r3, [r7, #20]
	ldr	r3, [r3, #124]
	cmp	r3, #0
	bne	.L220
	.loc 1 689 0
	ldr	r3, [r7, #20]
	mov	r2, #1
	str	r2, [r3, #124]
.L220:
	.loc 1 690 0
	ldr	r3, [r7, #20]
	ldr	r3, [r3, #124]
	cmp	r3, #16
	bls	.L221
	.loc 1 691 0
	ldr	r3, [r7, #20]
	mov	r2, #15
	str	r2, [r3, #124]
.L221:
	.loc 1 692 0
	ldr	r3, [r7, #20]
	ldr	r2, [r3, #112]
	ldr	r3, [r7, #20]
	ldr	r3, [r3, #124]
	lsl	r3, r3, #1
	add	r3, r2, r3
	ldrh	r1, [r3]
	ldr	r2, [r7, #20]
	mov	r3, #140
	strh	r1, [r2, r3]
	.loc 1 693 0
	ldr	r2, [r7, #20]
	mov	r3, #144
	mov	r1, #0
	str	r1, [r2, r3]
	.loc 1 695 0
	ldr	r2, .L300+12
	mov	r3, #109
	ldrb	r3, [r2, r3]
	cmp	r3, #0
	beq	.L219
	ldr	r2, [r7, #24]
	ldr	r3, .L300+16
	cmp	r2, r3
	bhi	.L219
	mov	r3, r7
	add	r3, r3, #31
	ldrb	r3, [r3]
	cmp	r3, #0
	bne	.L219
	.loc 1 697 0
	ldr	r2, [r7, #20]
	mov	r3, #140
	ldrh	r3, [r2, r3]
	lsl	r3, r3, #16
	asr	r2, r3, #16
	ldr	r1, [r7, #20]
	mov	r3, #72
	ldrh	r3, [r1, r3]
	lsl	r3, r3, #16
	asr	r3, r3, #16
	sub	r3, r2, r3
	ldr	r2, [r7, #24]
	mul	r3, r2
	cmp	r3, #0
	bge	.L222
	ldr	r2, .L300+16
	add	r3, r3, r2
.L222:
	asr	r3, r3, #16
	mov	r1, r3
	ldr	r2, [r7, #20]
	mov	r3, #144
	str	r1, [r2, r3]
.L219:
	.loc 1 699 0
	ldr	r2, [r7, #20]
	mov	r3, #72
	ldrh	r3, [r2, r3]
	lsl	r3, r3, #16
	asr	r3, r3, #16
	ldr	r2, [r7, #20]
	ldrh	r2, [r2, #32]
	lsl	r2, r2, #16
	asr	r2, r2, #16
	mul	r3, r2
	cmp	r3, #0
	bge	.L223
	add	r3, r3, #127
.L223:
	asr	r3, r3, #7
	str	r3, [r7, #32]
.LBB22:
	.loc 1 701 0
	mov	r3, #0
	str	r3, [r7, #36]
	bl	.L224	@ far jump
.L286:
.LBB23:
	.loc 1 703 0
	ldr	r3, [r7, #24]
	str	r3, [r7, #40]
	.loc 1 705 0
	mov	r3, r7
	add	r3, r3, #31
	ldrb	r3, [r3]
	cmp	r3, #0
	beq	.L225
	.loc 1 706 0
	ldr	r2, [r7, #36]
	ldr	r3, .L300+20
	lsl	r2, r2, #2
	ldr	r3, [r2, r3]
	mov	r1, #128
	lsl	r1, r1, #16
	add	r3, r3, r1
	lsr	r3, r3, #16
	ldr	r2, [r7, #40]
	mul	r3, r2
	lsr	r3, r3, #7
	str	r3, [r7, #40]
.L225:
	.loc 1 708 0
	ldr	r3, [r7, #20]
	ldr	r2, [r3, #40]
	ldr	r3, [r7, #20]
	ldr	r3, [r3, #44]
	add	r2, r2, r3
	ldr	r3, [r7, #20]
	str	r2, [r3, #40]
	.loc 1 709 0
	ldr	r3, [r7, #20]
	ldr	r2, [r3, #40]
	ldr	r3, .L300+16
	cmp	r2, r3
	bhi	.LCB3612
	b	.L226	@long jump
.LCB3612:
.LBB24:
	.loc 1 711 0
	ldr	r3, [r7, #20]
	ldr	r3, [r3, #40]
	lsr	r3, r3, #16
	str	r3, [r7, #44]
	.loc 1 713 0
	ldr	r3, [r7, #20]
	ldr	r3, [r3]
	cmp	r3, #9
	bls	.LCB3621
	b	.L227	@long jump
.LCB3621:
	lsl	r2, r3, #2
	ldr	r3, .L300+24
	add	r3, r2, r3
	ldr	r3, [r3]
	mov	pc, r3
	.section	.rodata
	.align	2
.L237:
	.word	.L227
	.word	.L228
	.word	.L240
	.word	.L244
	.word	.L247
	.word	.L232
	.word	.L233
	.word	.L234
	.word	.L235
	.word	.L257
	.text
.L228:
	.loc 1 716 0
	ldr	r3, [r7, #20]
	ldr	r3, [r3, #40]
	lsl	r3, r3, #16
	lsr	r2, r3, #16
	ldr	r3, [r7, #20]
	str	r2, [r3, #40]
	.loc 1 717 0
	ldr	r3, [r7, #20]
	ldr	r3, [r3, #28]
	mov	r2, r3
	ldr	r3, [r7, #44]
	lsl	r3, r3, #1
	add	r3, r2, r3
	mov	r2, r3
	ldr	r3, [r7, #20]
	str	r2, [r3, #28]
	.loc 1 718 0
	ldr	r3, [r7, #20]
	ldr	r3, [r3, #28]
	lsl	r1, r3, #24
	ldr	r2, [r7, #20]
	mov	r3, #136
	str	r1, [r2, r3]
	.loc 1 720 0
	ldr	r3, [r7, #20]
	ldr	r3, [r3, #28]
	cmp	r3, #125
	bgt	.LCB3657
	b	.L291	@long jump
.LCB3657:
	.loc 1 722 0
	ldr	r3, [r7, #20]
	mov	r2, #127
	str	r2, [r3, #28]
	.loc 1 723 0
	ldr	r1, [r7, #20]
	mov	r2, #136
	mov	r3, #254
	lsl	r3, r3, #23
	str	r3, [r1, r2]
	.loc 1 724 0
	ldr	r3, [r7, #20]
	mov	r2, #2
	str	r2, [r3]
	.loc 1 725 0
	ldr	r3, [r7, #20]
	ldr	r3, [r3, #68]
	cmp	r3, #8
	beq	.L239
	.loc 1 728 0
	ldr	r3, [r7, #20]
	ldr	r1, [r3, #56]
	ldr	r3, [r7, #20]
	ldr	r2, [r3, #68]
	mov	r3, r2
	lsl	r3, r3, #7
	sub	r3, r3, r2
	lsr	r3, r3, #3
	mov	ip, r3
	ldr	r0, [r7, #20]
	mov	r3, #1
	neg	r3, r3
	mov	r2, #128
	lsl	r2, r2, #21
	str	r2, [sp]
	mov	r2, r3
	mov	r3, ip
	bl	_ZL13S9xSetEnvRateP7Channelmiij
	.loc 1 729 0
	b	.L227
.L239:
	.loc 1 731 0
	ldr	r3, [r7, #20]
	mov	r2, #3
	str	r2, [r3]
	.loc 1 732 0
	ldr	r3, [r7, #20]
	ldr	r1, [r3, #60]
	ldr	r0, [r7, #20]
	mov	r3, #1
	neg	r3, r3
	mov	r2, #128
	lsl	r2, r2, #22
	str	r2, [sp]
	mov	r2, r3
	mov	r3, #0
	bl	_ZL13S9xSetEnvRateP7Channelmiij
	.loc 1 734 0
	b	.L227
.L241:
	.loc 1 739 0
	ldr	r2, [r7, #20]
	mov	r3, #136
	ldr	r3, [r2, r3]
	asr	r2, r3, #8
	mov	r3, r2
	lsl	r3, r3, #8
	sub	r1, r3, r2
	ldr	r2, [r7, #20]
	mov	r3, #136
	str	r1, [r2, r3]
	.loc 1 740 0
	ldr	r3, [r7, #20]
	ldr	r3, [r3, #40]
	ldr	r1, .L300+28
	add	r2, r3, r1
	ldr	r3, [r7, #20]
	str	r2, [r3, #40]
.L240:
	.loc 1 737 0
	ldr	r3, [r7, #20]
	ldr	r3, [r3, #40]
	ldr	r2, .L300+16
	cmp	r2, r3
	sbc	r3, r3, r3
	neg	r3, r3
	lsl	r3, r3, #24
	lsr	r3, r3, #24
	cmp	r3, #0
	bne	.L241
	.loc 1 742 0
	ldr	r2, [r7, #20]
	mov	r3, #136
	ldr	r3, [r2, r3]
	asr	r2, r3, #24
	ldr	r3, [r7, #20]
	str	r2, [r3, #28]
	.loc 1 743 0
	ldr	r3, [r7, #20]
	ldr	r2, [r3, #28]
	ldr	r3, [r7, #20]
	ldrh	r3, [r3, #36]
	lsl	r3, r3, #16
	asr	r3, r3, #16
	cmp	r2, r3
	ble	.LCB3753
	b	.L292	@long jump
.LCB3753:
	.loc 1 745 0
	ldr	r3, [r7, #20]
	ldr	r3, [r3, #28]
	cmp	r3, #0
	bgt	.L243
	.loc 1 747 0
	ldr	r2, [r7, #16]
	ldr	r3, [r7, #20]
	mov	r0, r2
	mov	r1, r3
	bl	_ZL20S9xAPUSetEndOfSampleiP7Channel
	.loc 1 748 0
	b	.L218
.L243:
	.loc 1 750 0
	ldr	r3, [r7, #20]
	mov	r2, #3
	str	r2, [r3]
	.loc 1 751 0
	ldr	r3, [r7, #20]
	ldr	r1, [r3, #60]
	ldr	r0, [r7, #20]
	mov	r3, #1
	neg	r3, r3
	mov	r2, #128
	lsl	r2, r2, #22
	str	r2, [sp]
	mov	r2, r3
	mov	r3, #0
	bl	_ZL13S9xSetEnvRateP7Channelmiij
	.loc 1 753 0
	b	.L227
.L245:
	.loc 1 758 0
	ldr	r2, [r7, #20]
	mov	r3, #136
	ldr	r3, [r2, r3]
	asr	r2, r3, #8
	mov	r3, r2
	lsl	r3, r3, #8
	sub	r1, r3, r2
	ldr	r2, [r7, #20]
	mov	r3, #136
	str	r1, [r2, r3]
	.loc 1 759 0
	ldr	r3, [r7, #20]
	ldr	r3, [r3, #40]
	ldr	r1, .L300+28
	add	r2, r3, r1
	ldr	r3, [r7, #20]
	str	r2, [r3, #40]
.L244:
	.loc 1 756 0
	ldr	r3, [r7, #20]
	ldr	r3, [r3, #40]
	ldr	r2, .L300+16
	cmp	r2, r3
	sbc	r3, r3, r3
	neg	r3, r3
	lsl	r3, r3, #24
	lsr	r3, r3, #24
	cmp	r3, #0
	bne	.L245
	.loc 1 761 0
	ldr	r2, [r7, #20]
	mov	r3, #136
	ldr	r3, [r2, r3]
	asr	r2, r3, #24
	ldr	r3, [r7, #20]
	str	r2, [r3, #28]
	.loc 1 762 0
	ldr	r3, [r7, #20]
	ldr	r3, [r3, #28]
	cmp	r3, #0
	ble	.LCB3821
	b	.L293	@long jump
.LCB3821:
	.loc 1 764 0
	ldr	r2, [r7, #16]
	ldr	r3, [r7, #20]
	mov	r0, r2
	mov	r1, r3
	bl	_ZL20S9xAPUSetEndOfSampleiP7Channel
	.loc 1 765 0
	b	.L218
.L301:
	.align	2
.L300:
	.word	SoundData
	.word	APU
	.word	so
	.word	Settings
	.word	65535
	.word	_ZL4wave
	.word	.L237
	.word	-65536
.L248:
	.loc 1 772 0
	ldr	r2, [r7, #20]
	mov	r3, #136
	ldr	r3, [r2, r3]
	ldr	r2, .L302
	add	r1, r3, r2
	ldr	r2, [r7, #20]
	mov	r3, #136
	str	r1, [r2, r3]
	.loc 1 773 0
	ldr	r3, [r7, #20]
	ldr	r3, [r3, #40]
	ldr	r1, .L302+4
	add	r2, r3, r1
	ldr	r3, [r7, #20]
	str	r2, [r3, #40]
.L247:
	.loc 1 770 0
	ldr	r3, [r7, #20]
	ldr	r3, [r3, #40]
	ldr	r2, .L302+8
	cmp	r2, r3
	sbc	r3, r3, r3
	neg	r3, r3
	lsl	r3, r3, #24
	lsr	r3, r3, #24
	cmp	r3, #0
	bne	.L248
	.loc 1 775 0
	ldr	r2, [r7, #20]
	mov	r3, #136
	ldr	r3, [r2, r3]
	asr	r2, r3, #24
	ldr	r3, [r7, #20]
	str	r2, [r3, #28]
	.loc 1 776 0
	ldr	r3, [r7, #20]
	ldr	r3, [r3, #28]
	cmp	r3, #0
	ble	.LCB3878
	b	.L294	@long jump
.LCB3878:
	.loc 1 778 0
	ldr	r2, [r7, #16]
	ldr	r3, [r7, #20]
	mov	r0, r2
	mov	r1, r3
	bl	_ZL20S9xAPUSetEndOfSampleiP7Channel
	.loc 1 779 0
	b	.L218
.L233:
	.loc 1 784 0
	ldr	r3, [r7, #20]
	ldr	r3, [r3, #40]
	lsl	r3, r3, #16
	lsr	r2, r3, #16
	ldr	r3, [r7, #20]
	str	r2, [r3, #40]
	.loc 1 785 0
	ldr	r3, [r7, #20]
	ldr	r3, [r3, #28]
	mov	r2, r3
	ldr	r3, [r7, #44]
	lsl	r3, r3, #1
	add	r3, r2, r3
	mov	r2, r3
	ldr	r3, [r7, #20]
	str	r2, [r3, #28]
	.loc 1 786 0
	ldr	r3, [r7, #20]
	ldr	r3, [r3, #28]
	lsl	r1, r3, #24
	ldr	r2, [r7, #20]
	mov	r3, #136
	str	r1, [r2, r3]
	.loc 1 788 0
	ldr	r3, [r7, #20]
	ldr	r3, [r3, #28]
	cmp	r3, #125
	bgt	.LCB3912
	b	.L295	@long jump
.LCB3912:
	.loc 1 790 0
	ldr	r3, [r7, #20]
	mov	r2, #127
	str	r2, [r3, #28]
	.loc 1 791 0
	ldr	r1, [r7, #20]
	mov	r2, #136
	mov	r3, #254
	lsl	r3, r3, #23
	str	r3, [r1, r2]
	.loc 1 792 0
	ldr	r3, [r7, #20]
	mov	r2, #5
	str	r2, [r3]
	.loc 1 793 0
	ldr	r2, [r7, #20]
	mov	r3, #132
	mov	r1, #5
	str	r1, [r2, r3]
	.loc 1 794 0
	ldr	r2, [r7, #20]
	mov	r3, #1
	neg	r3, r3
	mov	r1, #0
	str	r1, [sp]
	mov	r0, r2
	mov	r1, #0
	mov	r2, r3
	mov	r3, #0
	bl	_ZL13S9xSetEnvRateP7Channelmiij
	.loc 1 796 0
	b	.L227
.L234:
	.loc 1 799 0
	ldr	r3, [r7, #20]
	ldr	r3, [r3, #28]
	cmp	r3, #94
	ble	.L251
	.loc 1 801 0
	b	.L252
.L253:
	.loc 1 803 0
	ldr	r2, [r7, #20]
	mov	r3, #136
	ldr	r3, [r2, r3]
	mov	r2, #254
	lsl	r2, r2, #15
	add	r1, r3, r2
	ldr	r2, [r7, #20]
	mov	r3, #136
	str	r1, [r2, r3]
	.loc 1 804 0
	ldr	r3, [r7, #20]
	ldr	r3, [r3, #40]
	ldr	r1, .L302+4
	add	r2, r3, r1
	ldr	r3, [r7, #20]
	str	r2, [r3, #40]
.L252:
	.loc 1 801 0
	ldr	r3, [r7, #20]
	ldr	r3, [r3, #40]
	ldr	r2, .L302+8
	cmp	r2, r3
	sbc	r3, r3, r3
	neg	r3, r3
	lsl	r3, r3, #24
	lsr	r3, r3, #24
	cmp	r3, #0
	bne	.L253
	.loc 1 806 0
	ldr	r2, [r7, #20]
	mov	r3, #136
	ldr	r3, [r2, r3]
	asr	r2, r3, #24
	ldr	r3, [r7, #20]
	str	r2, [r3, #28]
	b	.L254
.L251:
	.loc 1 810 0
	ldr	r3, [r7, #20]
	ldr	r3, [r3, #40]
	lsl	r3, r3, #16
	lsr	r2, r3, #16
	ldr	r3, [r7, #20]
	str	r2, [r3, #40]
	.loc 1 811 0
	ldr	r3, [r7, #20]
	ldr	r3, [r3, #28]
	mov	r2, r3
	ldr	r3, [r7, #44]
	lsl	r3, r3, #1
	add	r3, r2, r3
	mov	r2, r3
	ldr	r3, [r7, #20]
	str	r2, [r3, #28]
	.loc 1 812 0
	ldr	r3, [r7, #20]
	ldr	r3, [r3, #28]
	lsl	r1, r3, #24
	ldr	r2, [r7, #20]
	mov	r3, #136
	str	r1, [r2, r3]
.L254:
	.loc 1 815 0
	ldr	r3, [r7, #20]
	ldr	r3, [r3, #28]
	cmp	r3, #125
	bgt	.LCB4012
	b	.L296	@long jump
.LCB4012:
	.loc 1 817 0
	ldr	r3, [r7, #20]
	mov	r2, #127
	str	r2, [r3, #28]
	.loc 1 818 0
	ldr	r1, [r7, #20]
	mov	r2, #136
	mov	r3, #254
	lsl	r3, r3, #23
	str	r3, [r1, r2]
	.loc 1 819 0
	ldr	r3, [r7, #20]
	mov	r2, #5
	str	r2, [r3]
	.loc 1 820 0
	ldr	r2, [r7, #20]
	mov	r3, #132
	mov	r1, #5
	str	r1, [r2, r3]
	.loc 1 821 0
	ldr	r2, [r7, #20]
	mov	r3, #1
	neg	r3, r3
	mov	r1, #0
	str	r1, [sp]
	mov	r0, r2
	mov	r1, #0
	mov	r2, r3
	mov	r3, #0
	bl	_ZL13S9xSetEnvRateP7Channelmiij
	.loc 1 823 0
	b	.L227
.L235:
	.loc 1 826 0
	ldr	r3, [r7, #20]
	ldr	r3, [r3, #40]
	lsl	r3, r3, #16
	lsr	r2, r3, #16
	ldr	r3, [r7, #20]
	str	r2, [r3, #40]
	.loc 1 827 0
	ldr	r3, [r7, #20]
	ldr	r3, [r3, #28]
	mov	r2, r3
	ldr	r3, [r7, #44]
	lsl	r3, r3, #1
	sub	r3, r2, r3
	mov	r2, r3
	ldr	r3, [r7, #20]
	str	r2, [r3, #28]
	.loc 1 828 0
	ldr	r3, [r7, #20]
	ldr	r3, [r3, #28]
	lsl	r1, r3, #24
	ldr	r2, [r7, #20]
	mov	r3, #136
	str	r1, [r2, r3]
	.loc 1 829 0
	ldr	r3, [r7, #20]
	ldr	r3, [r3, #28]
	cmp	r3, #0
	bgt	.L297
	.loc 1 831 0
	ldr	r2, [r7, #16]
	ldr	r3, [r7, #20]
	mov	r0, r2
	mov	r1, r3
	bl	_ZL20S9xAPUSetEndOfSampleiP7Channel
	.loc 1 832 0
	b	.L218
.L258:
	.loc 1 839 0
	ldr	r2, [r7, #20]
	mov	r3, #136
	ldr	r3, [r2, r3]
	asr	r2, r3, #8
	mov	r3, r2
	lsl	r3, r3, #8
	sub	r1, r3, r2
	ldr	r2, [r7, #20]
	mov	r3, #136
	str	r1, [r2, r3]
	.loc 1 840 0
	ldr	r3, [r7, #20]
	ldr	r3, [r3, #40]
	ldr	r1, .L302+4
	add	r2, r3, r1
	ldr	r3, [r7, #20]
	str	r2, [r3, #40]
.L257:
	.loc 1 837 0
	ldr	r3, [r7, #20]
	ldr	r3, [r3, #40]
	ldr	r2, .L302+8
	cmp	r2, r3
	sbc	r3, r3, r3
	neg	r3, r3
	lsl	r3, r3, #24
	lsr	r3, r3, #24
	cmp	r3, #0
	bne	.L258
	.loc 1 842 0
	ldr	r2, [r7, #20]
	mov	r3, #136
	ldr	r3, [r2, r3]
	asr	r2, r3, #24
	ldr	r3, [r7, #20]
	str	r2, [r3, #28]
	.loc 1 843 0
	ldr	r3, [r7, #20]
	ldr	r3, [r3, #28]
	cmp	r3, #0
	bgt	.L298
	.loc 1 845 0
	ldr	r2, [r7, #16]
	ldr	r3, [r7, #20]
	mov	r0, r2
	mov	r1, r3
	bl	_ZL20S9xAPUSetEndOfSampleiP7Channel
	.loc 1 846 0
	b	.L218
.L232:
	.loc 1 851 0
	ldr	r2, [r7, #20]
	mov	r3, #1
	neg	r3, r3
	mov	r1, #0
	str	r1, [sp]
	mov	r0, r2
	mov	r1, #0
	mov	r2, r3
	mov	r3, #0
	bl	_ZL13S9xSetEnvRateP7Channelmiij
	b	.L227
.L291:
	.loc 1 734 0
	mov	r8, r8
	b	.L227
.L292:
	.loc 1 753 0
	mov	r8, r8
	b	.L227
.L293:
	.loc 1 767 0
	mov	r8, r8
	b	.L227
.L294:
	.loc 1 781 0
	mov	r8, r8
	b	.L227
.L295:
	.loc 1 796 0
	mov	r8, r8
	b	.L227
.L296:
	.loc 1 823 0
	mov	r8, r8
	b	.L227
.L297:
	.loc 1 834 0
	mov	r8, r8
	b	.L227
.L298:
	.loc 1 848 0
	mov	r8, r8
.L227:
	.loc 1 854 0
	ldr	r3, [r7, #20]
	ldr	r3, [r3, #28]
	ldr	r2, [r7, #20]
	ldrh	r2, [r2, #8]
	lsl	r2, r2, #16
	asr	r2, r2, #16
	mul	r3, r2
	cmp	r3, #0
	bge	.L260
	add	r3, r3, #127
.L260:
	asr	r3, r3, #7
	lsl	r3, r3, #16
	lsr	r2, r3, #16
	ldr	r3, [r7, #20]
	strh	r2, [r3, #32]
	.loc 1 855 0
	ldr	r2, [r7, #20]
	mov	r3, #72
	ldrh	r3, [r2, r3]
	lsl	r3, r3, #16
	asr	r3, r3, #16
	ldr	r2, [r7, #20]
	ldrh	r2, [r2, #32]
	lsl	r2, r2, #16
	asr	r2, r2, #16
	mul	r3, r2
	cmp	r3, #0
	bge	.L261
	add	r3, r3, #127
.L261:
	asr	r3, r3, #7
	str	r3, [r7, #32]
.L226:
.LBE24:
	.loc 1 858 0
	ldr	r3, [r7, #20]
	ldr	r2, [r3, #20]
	ldr	r3, [r7, #40]
	add	r2, r2, r3
	ldr	r3, [r7, #20]
	str	r2, [r3, #20]
	.loc 1 859 0
	ldr	r3, [r7, #20]
	ldr	r2, [r3, #20]
	ldr	r3, .L302+8
	cmp	r2, r3
	bhi	.LCB4221
	b	.L262	@long jump
.LCB4221:
	.loc 1 861 0
	ldr	r3, [r7, #20]
	ldr	r3, [r3, #20]
	lsr	r3, r3, #16
	str	r3, [r7, #32]
	.loc 1 862 0
	ldr	r3, [r7, #20]
	ldr	r2, [r3, #124]
	ldr	r3, [r7, #32]
	add	r2, r2, r3
	ldr	r3, [r7, #20]
	str	r2, [r3, #124]
	.loc 1 863 0
	ldr	r3, [r7, #20]
	ldr	r3, [r3, #20]
	lsl	r3, r3, #16
	lsr	r2, r3, #16
	ldr	r3, [r7, #20]
	str	r2, [r3, #20]
	.loc 1 865 0
	ldr	r2, [r7, #20]
	mov	r3, #140
	ldrh	r1, [r2, r3]
	ldr	r2, [r7, #20]
	mov	r3, #72
	strh	r1, [r2, r3]
	.loc 1 866 0
	ldr	r3, [r7, #20]
	ldr	r3, [r3, #124]
	cmp	r3, #15
	bls	.L263
	.loc 1 868 0
	ldr	r3, [r7, #20]
	ldr	r2, [r3, #124]
	ldr	r3, .L302+12
	cmp	r2, r3
	bls	.L264
	.loc 1 870 0
	ldr	r2, [r7, #16]
	ldr	r3, [r7, #20]
	mov	r0, r2
	mov	r1, r3
	bl	_ZL20S9xAPUSetEndOfSampleiP7Channel
	.loc 1 871 0
	b	.L218
.L264:
	.loc 1 875 0
	ldr	r3, [r7, #20]
	ldr	r3, [r3, #124]
	mov	r2, r3
	sub	r2, r2, #16
	ldr	r3, [r7, #20]
	str	r2, [r3, #124]
	.loc 1 876 0
	ldr	r2, [r7, #20]
	mov	r3, #118
	ldrb	r3, [r2, r3]
	cmp	r3, #0
	beq	.L265
	.loc 1 878 0
	ldr	r3, [r7, #20]
	ldrb	r3, [r3, #24]
	cmp	r3, #0
	bne	.L266
	.loc 1 880 0
	ldr	r3, [r7, #20]
	ldr	r2, .L302+16
	str	r2, [r3, #124]
	.loc 1 881 0
	ldr	r2, [r7, #20]
	mov	r3, #72
	ldrh	r1, [r2, r3]
	ldr	r2, [r7, #20]
	mov	r3, #140
	strh	r1, [r2, r3]
	.loc 1 882 0
	b	.L267
.L303:
	.align	2
.L302:
	.word	-8323072
	.word	-65536
	.word	65535
	.word	16777214
	.word	16777215
.L266:
.LBB25:
	.loc 1 886 0
	ldr	r2, [r7, #20]
	mov	r3, #118
	mov	r1, #0
	strb	r1, [r2, r3]
	.loc 1 887 0
	ldr	r2, [r7, #20]
	mov	r3, #116
	ldrh	r3, [r2, r3]
	mov	r0, r3
	bl	_ZL19S9xGetSampleAddressi
	mov	r3, r0
	str	r3, [r7, #48]
	.loc 1 888 0
	ldr	r3, [r7, #48]
	add	r3, r3, #2
	ldrh	r3, [r3]
	mov	r2, r3
	ldr	r3, [r7, #20]
	str	r2, [r3, #120]
	.loc 1 889 0
	ldr	r3, [r7, #16]
	mov	r0, r3
	bl	_ZL13S9xAPUSetEndXi
.L265:
.LBE25:
	.loc 1 892 0
	ldr	r3, [r7, #20]
	mov	r0, r3
	bl	_ZL11DecodeBlockP7Channel
	.loc 1 873 0
	ldr	r3, [r7, #20]
	ldr	r3, [r3, #124]
	mov	r2, #15
	cmp	r2, r3
	sbc	r3, r3, r3
	neg	r3, r3
	lsl	r3, r3, #24
	lsr	r3, r3, #24
	cmp	r3, #0
	bne	.L264
.L267:
	.loc 1 894 0
	ldr	r3, [r7, #20]
	ldr	r2, [r3, #124]
	ldr	r3, .L304
	cmp	r2, r3
	bhi	.L299
	.loc 1 895 0
	ldr	r3, [r7, #20]
	ldr	r2, [r3, #112]
	ldr	r3, [r7, #20]
	ldr	r3, [r3, #124]
	lsl	r3, r3, #1
	add	r3, r2, r3
	ldrh	r1, [r3]
	ldr	r2, [r7, #20]
	mov	r3, #140
	strh	r1, [r2, r3]
	b	.L269
.L263:
	.loc 1 898 0
	ldr	r3, [r7, #20]
	ldr	r2, [r3, #112]
	ldr	r3, [r7, #20]
	ldr	r3, [r3, #124]
	lsl	r3, r3, #1
	add	r3, r2, r3
	ldrh	r1, [r3]
	ldr	r2, [r7, #20]
	mov	r3, #140
	strh	r1, [r2, r3]
	b	.L269
.L299:
	.loc 1 895 0
	mov	r8, r8
.L269:
	.loc 1 900 0
	ldr	r3, [r7, #20]
	ldr	r3, [r3, #4]
	cmp	r3, #0
	bne	.L276
	.loc 1 902 0
	ldr	r2, .L304+4
	mov	r3, #109
	ldrb	r3, [r2, r3]
	cmp	r3, #0
	beq	.L271
	ldr	r2, [r7, #40]
	ldr	r3, .L304+8
	cmp	r2, r3
	bhi	.L271
	mov	r3, r7
	add	r3, r3, #31
	ldrb	r3, [r3]
	cmp	r3, #0
	bne	.L271
	.loc 1 905 0
	ldr	r2, [r7, #20]
	mov	r3, #140
	ldrh	r3, [r2, r3]
	lsl	r3, r3, #16
	asr	r2, r3, #16
	ldr	r1, [r7, #20]
	mov	r3, #72
	ldrh	r3, [r1, r3]
	lsl	r3, r3, #16
	asr	r3, r3, #16
	sub	r3, r2, r3
	ldr	r2, [r7, #40]
	mul	r3, r2
	cmp	r3, #0
	bge	.L272
	ldr	r2, .L304+8
	add	r3, r3, r2
.L272:
	asr	r3, r3, #16
	mov	r1, r3
	ldr	r2, [r7, #20]
	mov	r3, #144
	str	r1, [r2, r3]
	.loc 1 907 0
	ldr	r2, [r7, #20]
	mov	r3, #72
	ldrh	r3, [r2, r3]
	lsl	r3, r3, #16
	lsr	r2, r3, #16
	ldr	r1, [r7, #20]
	mov	r3, #140
	ldrh	r3, [r1, r3]
	lsl	r3, r3, #16
	asr	r1, r3, #16
	ldr	r0, [r7, #20]
	mov	r3, #72
	ldrh	r3, [r0, r3]
	lsl	r3, r3, #16
	asr	r3, r3, #16
	sub	r1, r1, r3
	ldr	r3, [r7, #20]
	ldr	r3, [r3, #20]
	mul	r3, r1
	cmp	r3, #0
	bge	.L273
	ldr	r1, .L304+8
	add	r3, r3, r1
.L273:
	asr	r3, r3, #16
	lsl	r3, r3, #16
	lsr	r3, r3, #16
	add	r3, r2, r3
	lsl	r3, r3, #16
	lsr	r3, r3, #16
	mov	r1, r3
	ldr	r2, [r7, #20]
	mov	r3, #72
	strh	r1, [r2, r3]
	.loc 1 902 0
	mov	r8, r8
	b	.L275
.L271:
	.loc 1 910 0
	ldr	r2, [r7, #20]
	mov	r3, #144
	mov	r1, #0
	str	r1, [r2, r3]
	b	.L275
.L278:
	.loc 1 915 0
	ldr	r3, .L304+12
	ldr	r3, [r3, #8]
	lsl	r2, r3, #1
	ldr	r3, .L304+12
	str	r2, [r3, #8]
	ldr	r3, .L304+12
	ldr	r3, [r3, #8]
	lsr	r3, r3, #31
	lsl	r3, r3, #24
	lsr	r3, r3, #24
	cmp	r3, #0
	beq	.L277
	.loc 1 916 0
	ldr	r3, .L304+12
	ldr	r2, [r3, #8]
	ldr	r3, .L304+16
	eor	r2, r2, r3
	ldr	r3, .L304+12
	str	r2, [r3, #8]
.L277:
	.loc 1 914 0
	ldr	r3, [r7, #32]
	sub	r3, r3, #1
	str	r3, [r7, #32]
.L276:
	ldr	r3, [r7, #32]
	asr	r2, r3, #31
	sub	r3, r2, r3
	lsr	r3, r3, #31
	lsl	r3, r3, #24
	lsr	r3, r3, #24
	cmp	r3, #0
	bne	.L278
	.loc 1 917 0
	ldr	r3, .L304+12
	ldr	r3, [r3, #8]
	lsl	r3, r3, #17
	asr	r3, r3, #17
	lsl	r3, r3, #16
	lsr	r1, r3, #16
	ldr	r2, [r7, #20]
	mov	r3, #72
	strh	r1, [r2, r3]
	.loc 1 918 0
	ldr	r2, [r7, #20]
	mov	r3, #144
	mov	r1, #0
	str	r1, [r2, r3]
.L275:
	.loc 1 920 0
	ldr	r2, [r7, #20]
	mov	r3, #72
	ldrh	r3, [r2, r3]
	lsl	r3, r3, #16
	asr	r3, r3, #16
	ldr	r2, [r7, #20]
	ldrh	r2, [r2, #32]
	lsl	r2, r2, #16
	asr	r2, r2, #16
	mul	r3, r2
	cmp	r3, #0
	bge	.L279
	add	r3, r3, #127
.L279:
	asr	r3, r3, #7
	str	r3, [r7, #32]
	b	.L280
.L262:
	.loc 1 924 0
	ldr	r2, [r7, #20]
	mov	r3, #144
	ldr	r3, [r2, r3]
	cmp	r3, #0
	beq	.L280
.LBB26:
	.loc 1 926 0
	ldr	r2, [r7, #20]
	mov	r3, #72
	ldrh	r3, [r2, r3]
	lsl	r3, r3, #16
	asr	r2, r3, #16
	ldr	r1, [r7, #20]
	mov	r3, #144
	ldr	r3, [r1, r3]
	add	r3, r2, r3
	str	r3, [r7, #52]
	.loc 1 928 0
	ldr	r2, [r7, #52]
	ldr	r3, .L304+20
	cmp	r2, r3
	bge	.L281
	ldr	r3, .L304+20
	str	r3, [r7, #52]
	b	.L282
.L281:
	ldr	r2, [r7, #52]
	ldr	r3, .L304+24
	cmp	r2, r3
	ble	.L282
	ldr	r3, .L304+24
	str	r3, [r7, #52]
.L282:
	.loc 1 929 0
	ldr	r3, [r7, #52]
	lsl	r3, r3, #16
	lsr	r1, r3, #16
	ldr	r2, [r7, #20]
	mov	r3, #72
	strh	r1, [r2, r3]
	.loc 1 930 0
	ldr	r2, [r7, #20]
	mov	r3, #72
	ldrh	r3, [r2, r3]
	lsl	r3, r3, #16
	asr	r3, r3, #16
	ldr	r2, [r7, #20]
	ldrh	r2, [r2, #32]
	lsl	r2, r2, #16
	asr	r2, r2, #16
	mul	r3, r2
	cmp	r3, #0
	bge	.L283
	add	r3, r3, #127
.L283:
	asr	r3, r3, #7
	str	r3, [r7, #32]
.L280:
.LBE26:
	.loc 1 934 0
	ldr	r2, [r7, #36]
	ldr	r1, [r7, #36]
	ldr	r3, .L304+28
	lsl	r1, r1, #2
	ldr	r1, [r1, r3]
	ldr	r3, [r7, #32]
	add	r1, r1, r3
	ldr	r3, .L304+28
	lsl	r2, r2, #2
	str	r1, [r2, r3]
	.loc 1 935 0
	ldr	r2, [r7, #20]
	mov	r3, #128
	ldr	r3, [r2, r3]
	cmp	r3, #0
	beq	.L284
	.loc 1 936 0
	ldr	r2, [r7, #20]
	mov	r3, #128
	ldr	r2, [r2, r3]
	ldr	r3, [r7, #36]
	lsl	r3, r3, #2
	add	r3, r2, r3
	ldr	r1, [r7, #20]
	mov	r2, #128
	ldr	r1, [r1, r2]
	ldr	r2, [r7, #36]
	lsl	r2, r2, #2
	add	r2, r1, r2
	ldr	r1, [r2]
	ldr	r2, [r7, #32]
	add	r2, r1, r2
	str	r2, [r3]
.L284:
	.loc 1 938 0
	ldr	r3, [r7, #16]
	add	r3, r3, #1
	ldr	r2, [r7, #12]
	asr	r2, r2, r3
	mov	r3, #1
	and	r3, r3, r2
	lsl	r3, r3, #24
	lsr	r3, r3, #24
	cmp	r3, #0
	beq	.L285
	.loc 1 939 0
	ldr	r2, [r7, #36]
	ldr	r1, [r7, #20]
	mov	r3, #72
	ldrh	r3, [r1, r3]
	lsl	r3, r3, #16
	asr	r1, r3, #16
	ldr	r3, [r7, #20]
	ldr	r3, [r3, #28]
	mul	r1, r3
	ldr	r3, .L304+32
	lsl	r2, r2, #2
	str	r1, [r2, r3]
.L285:
.LBE23:
	.loc 1 701 0
	ldr	r3, [r7, #36]
	add	r3, r3, #1
	str	r3, [r7, #36]
.L224:
	ldr	r3, [r7, #4]
	ldr	r2, [r7, #36]
	cmp	r2, r3
	sbc	r3, r3, r3
	neg	r3, r3
	lsl	r3, r3, #24
	lsr	r3, r3, #24
	cmp	r3, #0
	beq	.LCB4662
	b	.L286	@long jump
.LCB4662:
	b	.L218
.L289:
.LBE22:
	.loc 1 676 0
	mov	r8, r8
	b	.L218
.L290:
	mov	r8, r8
.L218:
.LBE21:
	.loc 1 670 0
	ldr	r3, [r7, #16]
	add	r3, r3, #1
	str	r3, [r7, #16]
.L215:
	ldr	r2, [r7, #16]
	mov	r1, #7
	mov	r3, #0
	cmp	r1, r2
	adc	r3, r3, r3
	lsl	r3, r3, #24
	lsr	r3, r3, #24
	cmp	r3, #0
	beq	.LCB4689
	bl	.L287	@far jump
.LCB4689:
.LBE20:
.LBE19:
	.loc 1 943 0
	mov	sp, r7
	add	sp, sp, #56
	@ sp needed for prologue
	pop	{r7, pc}
.L305:
	.align	2
.L304:
	.word	16777214
	.word	Settings
	.word	65535
	.word	so
	.word	262145
	.word	-32768
	.word	32767
	.word	MixBuffer
	.word	_ZL4wave
.LFE45:
	.cantunwind
	.fnend
	.size	_ZL7MixMonoi, .-_ZL7MixMonoi
	.align	2
	.global	S9xMixSamples
	.hidden	S9xMixSamples
	.code	16
	.thumb_func
	.type	S9xMixSamples, %function
S9xMixSamples:
	.fnstart
.LFB46:
	.loc 1 948 0
	.save	{r7, lr}
	push	{r7, lr}
.LCFI54:
	sub	sp, sp, #8
.LCFI55:
	add	r7, sp, #0
.LCFI56:
	str	r0, [r7, #4]
	str	r1, [r7]
	.loc 1 949 0
	ldr	r2, [r7, #4]
	ldr	r3, [r7]
	mov	r0, r2
	mov	r1, r3
	mov	r2, #0
	bl	S9xMixSamplesO
	.loc 1 950 0
	mov	sp, r7
	add	sp, sp, #8
	@ sp needed for prologue
	pop	{r7, pc}
.LFE46:
	.cantunwind
	.fnend
	.size	S9xMixSamples, .-S9xMixSamples
	.align	2
	.global	S9xMixSamplesO
	.hidden	S9xMixSamplesO
	.code	16
	.thumb_func
	.type	S9xMixSamplesO, %function
S9xMixSamplesO:
	.fnstart
.LFB47:
	.loc 1 954 0
	.save	{r4, r7, lr}
	push	{r4, r7, lr}
.LCFI57:
	sub	sp, sp, #84
.LCFI58:
	add	r7, sp, #0
.LCFI59:
	str	r0, [r7, #12]
	str	r1, [r7, #8]
	str	r2, [r7, #4]
.LBB27:
	.loc 1 958 0
	ldr	r3, [r7, #4]
	lsl	r3, r3, #1
	ldr	r2, [r7, #12]
	add	r3, r2, r3
	str	r3, [r7, #12]
	.loc 1 960 0
	ldr	r3, .L379
	ldrb	r3, [r3, #5]
	cmp	r3, #0
	beq	.L309
	.loc 1 962 0
	ldr	r2, [r7, #12]
	ldr	r3, [r7, #8]
	asr	r3, r3, #1
	mov	r0, r2
	mov	r1, #0
	mov	r2, r3
	bl	_ZL15sounduxmemset32Pvmm
	.loc 1 963 0
	bl	.L378	@ far jump
.L309:
	.loc 1 966 0
	ldr	r2, .L379+4
	ldr	r3, [r7, #8]
	mov	r0, r2
	mov	r1, #0
	mov	r2, r3
	bl	_ZL15sounduxmemset32Pvmm
	.loc 1 967 0
	ldr	r3, .L379+8
	ldr	r3, [r3, #8]
	cmp	r3, #0
	beq	.L311
	.loc 1 968 0
	ldr	r2, .L379+12
	ldr	r3, [r7, #8]
	mov	r0, r2
	mov	r1, #0
	mov	r2, r3
	bl	_ZL15sounduxmemset32Pvmm
.L311:
	.loc 1 970 0
	ldr	r3, .L379
	ldrb	r3, [r3, #4]
	cmp	r3, #0
	beq	.L312
	.loc 1 971 0
	ldr	r3, [r7, #8]
	mov	r0, r3
	bl	_ZL9MixStereoi
	b	.L313
.L312:
	.loc 1 973 0
	ldr	r3, [r7, #8]
	mov	r0, r3
	bl	_ZL7MixMonoi
.L313:
	.loc 1 976 0
	ldr	r3, .L379+8
	ldr	r3, [r3, #8]
	cmp	r3, #0
	bne	.LCB4803
	b	.L314	@long jump
.LCB4803:
	ldr	r3, .L379+8
	ldr	r3, [r3, #20]
	cmp	r3, #0
	bne	.LCB4807
	b	.L314	@long jump
.LCB4807:
	.loc 1 978 0
	ldr	r3, .L379
	ldrb	r3, [r3, #4]
	cmp	r3, #0
	bne	.LCB4811
	b	.L315	@long jump
.LCB4811:
.LBB28:
	.loc 1 981 0
	ldr	r2, .L379+8
	ldr	r3, .L379+16
	ldr	r3, [r2, r3]
	str	r3, [r7, #28]
	.loc 1 982 0
	ldr	r2, .L379+8
	mov	r3, #219
	lsl	r3, r3, #3
	ldr	r3, [r2, r3]
	str	r3, [r7, #32]
	.loc 1 983 0
	ldr	r2, .L379+8
	ldr	r3, .L379+20
	ldr	r3, [r2, r3]
	str	r3, [r7, #36]
	.loc 1 984 0
	ldr	r2, .L379+8
	mov	r3, #220
	lsl	r3, r3, #3
	ldr	r3, [r2, r3]
	str	r3, [r7, #40]
	.loc 1 987 0
	ldr	r2, .L379+8
	mov	r3, #218
	lsl	r3, r3, #3
	ldrb	r3, [r2, r3]
	cmp	r3, #0
	bne	.LCB4836
	b	.L316	@long jump
.LCB4836:
	.loc 1 990 0
	mov	r3, #0
	str	r3, [r7, #16]
	b	.L317
.L328:
.LBB29:
	.loc 1 992 0
	ldr	r3, .L379+8
	ldr	r2, [r3, #16]
	ldr	r3, .L379+24
	lsl	r2, r2, #2
	ldr	r3, [r2, r3]
	str	r3, [r7, #44]
	.loc 1 994 0
	ldr	r3, .L379+8
	ldr	r2, [r3, #16]
	ldr	r3, .L379+8
	ldr	r3, [r3, #12]
	ldr	r1, [r7, #44]
	mul	r3, r1
	cmp	r3, #0
	bge	.L318
	add	r3, r3, #127
.L318:
	asr	r3, r3, #7
	mov	r1, r3
	ldr	r0, [r7, #16]
	ldr	r3, .L379+12
	lsl	r0, r0, #2
	ldr	r3, [r0, r3]
	add	r0, r1, r3
	ldr	r3, .L379+24
	lsl	r1, r2, #2
	str	r0, [r1, r3]
	add	r2, r2, #1
	ldr	r3, .L379+8
	str	r2, [r3, #16]
	.loc 1 995 0
	ldr	r3, .L379+8
	ldr	r2, [r3, #16]
	ldr	r3, .L379+8
	ldr	r3, [r3, #12]
	ldr	r1, [r7, #44]
	mul	r3, r1
	cmp	r3, #0
	bge	.L319
	add	r3, r3, #127
.L319:
	asr	r3, r3, #7
	mov	r1, r3
	ldr	r3, [r7, #16]
	add	r0, r3, #1
	ldr	r3, .L379+12
	lsl	r0, r0, #2
	ldr	r3, [r0, r3]
	add	r0, r1, r3
	ldr	r3, .L379+24
	lsl	r1, r2, #2
	str	r0, [r1, r3]
	add	r2, r2, #1
	ldr	r3, .L379+8
	str	r2, [r3, #16]
	.loc 1 997 0
	ldr	r3, .L379+8
	ldr	r2, [r3, #16]
	ldr	r3, .L379+8
	ldr	r3, [r3, #20]
	cmp	r2, r3
	blt	.L320
	.loc 1 998 0
	ldr	r3, .L379+8
	mov	r2, #0
	str	r2, [r3, #16]
.L320:
	.loc 1 1000 0
	ldr	r2, [r7, #16]
	ldr	r3, .L379+4
	lsl	r2, r2, #2
	ldr	r3, [r2, r3]
	ldr	r2, [r7, #28]
	mul	r2, r3
	ldr	r3, [r7, #44]
	ldr	r1, [r7, #36]
	mul	r3, r1
	add	r3, r2, r3
	cmp	r3, #0
	bge	.L321
	add	r3, r3, #127
.L321:
	asr	r3, r3, #7
	str	r3, [r7, #20]
	.loc 1 1001 0
	ldr	r3, [r7, #16]
	add	r2, r3, #1
	ldr	r3, .L379+4
	lsl	r2, r2, #2
	ldr	r3, [r2, r3]
	ldr	r2, [r7, #32]
	mul	r2, r3
	ldr	r3, [r7, #44]
	ldr	r1, [r7, #40]
	mul	r3, r1
	add	r3, r2, r3
	cmp	r3, #0
	bge	.L322
	add	r3, r3, #127
.L322:
	asr	r3, r3, #7
	str	r3, [r7, #24]
	.loc 1 1003 0
	ldr	r2, [r7, #20]
	ldr	r3, .L379+28
	cmp	r2, r3
	bge	.L323
	ldr	r3, .L379+28
	str	r3, [r7, #20]
	b	.L324
.L323:
	ldr	r2, [r7, #20]
	ldr	r3, .L379+32
	cmp	r2, r3
	ble	.L324
	ldr	r3, .L379+32
	str	r3, [r7, #20]
.L324:
	.loc 1 1004 0
	ldr	r2, [r7, #24]
	ldr	r3, .L379+28
	cmp	r2, r3
	bge	.L325
	ldr	r3, .L379+28
	str	r3, [r7, #24]
	b	.L326
.L325:
	ldr	r2, [r7, #24]
	ldr	r3, .L379+32
	cmp	r2, r3
	ble	.L326
	ldr	r3, .L379+32
	str	r3, [r7, #24]
.L326:
	.loc 1 1005 0
	ldr	r3, [r7, #16]
	lsl	r2, r3, #1
	ldr	r3, [r7, #12]
	add	r3, r2, r3
	ldr	r2, [r7, #20]
	lsl	r2, r2, #16
	lsr	r2, r2, #16
	strh	r2, [r3]
	.loc 1 1006 0
	ldr	r3, [r7, #16]
	add	r3, r3, #1
	lsl	r2, r3, #1
	ldr	r3, [r7, #12]
	add	r3, r2, r3
	ldr	r2, [r7, #24]
	lsl	r2, r2, #16
	lsr	r2, r2, #16
	strh	r2, [r3]
.LBE29:
	.loc 1 990 0
	ldr	r3, [r7, #16]
	add	r3, r3, #2
	str	r3, [r7, #16]
.L317:
	mov	r3, #1
	ldr	r1, [r7, #16]
	ldr	r2, [r7, #8]
	cmp	r1, r2
	blt	.L327
	mov	r3, #0
.L327:
	lsl	r3, r3, #24
	lsr	r3, r3, #24
	cmp	r3, #0
	beq	.LCB5015
	b	.L328	@long jump
.LCB5015:
.LBE28:
	.loc 1 976 0
	b	.L378
.L316:
.LBB31:
	.loc 1 1012 0
	mov	r3, #0
	str	r3, [r7, #16]
	b	.L330
.L380:
	.align	2
.L379:
	.word	so
	.word	MixBuffer
	.word	SoundData
	.word	EchoBuffer
	.word	1748
	.word	1756
	.word	Echo
	.word	-32768
	.word	32767
.L342:
.LBB30:
	.loc 1 1014 0
	ldr	r3, .L381
	ldr	r2, [r3, #16]
	ldr	r3, .L381+4
	lsl	r2, r2, #2
	ldr	r4, [r2, r3]
	.loc 1 1016 0
	ldr	r3, .L381+8
	ldr	r2, [r3]
	mov	r3, #15
	and	r2, r2, r3
	ldr	r3, .L381+12
	lsl	r2, r2, #2
	str	r4, [r2, r3]
	.loc 1 1017 0
	ldr	r3, .L381+16
	ldr	r3, [r3]
	mul	r4, r3
	.loc 1 1018 0
	ldr	r3, .L381+8
	ldr	r3, [r3]
	sub	r2, r3, #2
	mov	r3, #15
	and	r2, r2, r3
	ldr	r3, .L381+12
	lsl	r2, r2, #2
	ldr	r2, [r2, r3]
	ldr	r3, .L381+16
	ldr	r3, [r3, #4]
	mul	r3, r2
	add	r4, r4, r3
	.loc 1 1019 0
	ldr	r3, .L381+8
	ldr	r3, [r3]
	sub	r2, r3, #4
	mov	r3, #15
	and	r2, r2, r3
	ldr	r3, .L381+12
	lsl	r2, r2, #2
	ldr	r2, [r2, r3]
	ldr	r3, .L381+16
	ldr	r3, [r3, #8]
	mul	r3, r2
	add	r4, r4, r3
	.loc 1 1020 0
	ldr	r3, .L381+8
	ldr	r3, [r3]
	sub	r2, r3, #6
	mov	r3, #15
	and	r2, r2, r3
	ldr	r3, .L381+12
	lsl	r2, r2, #2
	ldr	r2, [r2, r3]
	ldr	r3, .L381+16
	ldr	r3, [r3, #12]
	mul	r3, r2
	add	r4, r4, r3
	.loc 1 1021 0
	ldr	r3, .L381+8
	ldr	r3, [r3]
	mov	r2, r3
	sub	r2, r2, #8
	mov	r3, #15
	and	r2, r2, r3
	ldr	r3, .L381+12
	lsl	r2, r2, #2
	ldr	r2, [r2, r3]
	ldr	r3, .L381+16
	ldr	r3, [r3, #16]
	mul	r3, r2
	add	r4, r4, r3
	.loc 1 1022 0
	ldr	r3, .L381+8
	ldr	r3, [r3]
	mov	r2, r3
	sub	r2, r2, #10
	mov	r3, #15
	and	r2, r2, r3
	ldr	r3, .L381+12
	lsl	r2, r2, #2
	ldr	r2, [r2, r3]
	ldr	r3, .L381+16
	ldr	r3, [r3, #20]
	mul	r3, r2
	add	r4, r4, r3
	.loc 1 1023 0
	ldr	r3, .L381+8
	ldr	r3, [r3]
	mov	r2, r3
	sub	r2, r2, #12
	mov	r3, #15
	and	r2, r2, r3
	ldr	r3, .L381+12
	lsl	r2, r2, #2
	ldr	r2, [r2, r3]
	ldr	r3, .L381+16
	ldr	r3, [r3, #24]
	mul	r3, r2
	add	r4, r4, r3
	.loc 1 1024 0
	ldr	r3, .L381+8
	ldr	r3, [r3]
	mov	r2, r3
	sub	r2, r2, #14
	mov	r3, #15
	and	r2, r2, r3
	ldr	r3, .L381+12
	lsl	r2, r2, #2
	ldr	r2, [r2, r3]
	ldr	r3, .L381+16
	ldr	r3, [r3, #28]
	mul	r3, r2
	add	r4, r4, r3
	.loc 1 1025 0
	mov	r3, r4
	cmp	r3, #0
	bge	.L331
	add	r3, r3, #127
.L331:
	asr	r3, r3, #7
	mov	r4, r3
	.loc 1 1026 0
	ldr	r3, .L381+8
	ldr	r3, [r3]
	add	r2, r3, #1
	ldr	r3, .L381+8
	str	r2, [r3]
	.loc 1 1028 0
	ldr	r3, .L381
	ldr	r2, [r3, #16]
	ldr	r3, .L381
	ldr	r3, [r3, #12]
	mul	r3, r4
	cmp	r3, #0
	bge	.L332
	add	r3, r3, #127
.L332:
	asr	r3, r3, #7
	mov	r1, r3
	ldr	r0, [r7, #16]
	ldr	r3, .L381+20
	lsl	r0, r0, #2
	ldr	r3, [r0, r3]
	add	r0, r1, r3
	ldr	r3, .L381+4
	lsl	r1, r2, #2
	str	r0, [r1, r3]
	add	r2, r2, #1
	ldr	r3, .L381
	str	r2, [r3, #16]
	.loc 1 1029 0
	ldr	r3, .L381
	ldr	r2, [r3, #16]
	ldr	r3, .L381
	ldr	r3, [r3, #12]
	mul	r3, r4
	cmp	r3, #0
	bge	.L333
	add	r3, r3, #127
.L333:
	asr	r3, r3, #7
	mov	r1, r3
	ldr	r3, [r7, #16]
	add	r0, r3, #1
	ldr	r3, .L381+20
	lsl	r0, r0, #2
	ldr	r3, [r0, r3]
	add	r0, r1, r3
	ldr	r3, .L381+4
	lsl	r1, r2, #2
	str	r0, [r1, r3]
	add	r2, r2, #1
	ldr	r3, .L381
	str	r2, [r3, #16]
	.loc 1 1031 0
	ldr	r3, .L381
	ldr	r2, [r3, #16]
	ldr	r3, .L381
	ldr	r3, [r3, #20]
	cmp	r2, r3
	blt	.L334
	.loc 1 1032 0
	ldr	r3, .L381
	mov	r2, #0
	str	r2, [r3, #16]
.L334:
	.loc 1 1034 0
	ldr	r2, [r7, #16]
	ldr	r3, .L381+24
	lsl	r2, r2, #2
	ldr	r3, [r2, r3]
	ldr	r2, [r7, #28]
	mul	r2, r3
	ldr	r3, [r7, #36]
	mul	r3, r4
	add	r3, r2, r3
	cmp	r3, #0
	bge	.L335
	add	r3, r3, #127
.L335:
	asr	r3, r3, #7
	str	r3, [r7, #20]
	.loc 1 1035 0
	ldr	r3, [r7, #16]
	add	r2, r3, #1
	ldr	r3, .L381+24
	lsl	r2, r2, #2
	ldr	r3, [r2, r3]
	ldr	r2, [r7, #32]
	mul	r2, r3
	ldr	r3, [r7, #40]
	mul	r3, r4
	add	r3, r2, r3
	cmp	r3, #0
	bge	.L336
	add	r3, r3, #127
.L336:
	asr	r3, r3, #7
	str	r3, [r7, #24]
	.loc 1 1037 0
	ldr	r2, [r7, #20]
	ldr	r3, .L381+28
	cmp	r2, r3
	bge	.L337
	ldr	r3, .L381+28
	str	r3, [r7, #20]
	b	.L338
.L337:
	ldr	r2, [r7, #20]
	ldr	r3, .L381+32
	cmp	r2, r3
	ble	.L338
	ldr	r3, .L381+32
	str	r3, [r7, #20]
.L338:
	.loc 1 1038 0
	ldr	r2, [r7, #24]
	ldr	r3, .L381+28
	cmp	r2, r3
	bge	.L339
	ldr	r3, .L381+28
	str	r3, [r7, #24]
	b	.L340
.L339:
	ldr	r2, [r7, #24]
	ldr	r3, .L381+32
	cmp	r2, r3
	ble	.L340
	ldr	r3, .L381+32
	str	r3, [r7, #24]
.L340:
	.loc 1 1039 0
	ldr	r3, [r7, #16]
	lsl	r2, r3, #1
	ldr	r3, [r7, #12]
	add	r3, r2, r3
	ldr	r2, [r7, #20]
	lsl	r2, r2, #16
	lsr	r2, r2, #16
	strh	r2, [r3]
	.loc 1 1040 0
	ldr	r3, [r7, #16]
	add	r3, r3, #1
	lsl	r2, r3, #1
	ldr	r3, [r7, #12]
	add	r3, r2, r3
	ldr	r2, [r7, #24]
	lsl	r2, r2, #16
	lsr	r2, r2, #16
	strh	r2, [r3]
.LBE30:
	.loc 1 1012 0
	ldr	r3, [r7, #16]
	add	r3, r3, #2
	str	r3, [r7, #16]
.L330:
	mov	r3, #1
	ldr	r1, [r7, #16]
	ldr	r2, [r7, #8]
	cmp	r1, r2
	blt	.L341
	mov	r3, #0
.L341:
	lsl	r3, r3, #24
	lsr	r3, r3, #24
	cmp	r3, #0
	beq	.LCB5320
	b	.L342	@long jump
.LCB5320:
.LBE31:
	.loc 1 976 0
	b	.L378
.L315:
.LBB32:
	.loc 1 1047 0
	ldr	r2, .L381
	ldr	r3, .L381+36
	ldr	r3, [r2, r3]
	str	r3, [r7, #52]
	.loc 1 1048 0
	ldr	r2, .L381
	ldr	r3, .L381+40
	ldr	r3, [r2, r3]
	str	r3, [r7, #56]
	.loc 1 1051 0
	ldr	r2, .L381
	mov	r3, #218
	lsl	r3, r3, #3
	ldrb	r3, [r2, r3]
	cmp	r3, #0
	beq	.L344
	.loc 1 1054 0
	mov	r3, #0
	str	r3, [r7, #16]
	b	.L345
.L352:
.LBB33:
	.loc 1 1056 0
	ldr	r3, .L381
	ldr	r2, [r3, #16]
	ldr	r3, .L381+4
	lsl	r2, r2, #2
	ldr	r3, [r2, r3]
	str	r3, [r7, #60]
	.loc 1 1058 0
	ldr	r3, .L381
	ldr	r2, [r3, #16]
	ldr	r3, .L381
	ldr	r3, [r3, #12]
	ldr	r1, [r7, #60]
	mul	r3, r1
	cmp	r3, #0
	bge	.L346
	add	r3, r3, #127
.L346:
	asr	r3, r3, #7
	mov	r1, r3
	ldr	r0, [r7, #16]
	ldr	r3, .L381+20
	lsl	r0, r0, #2
	ldr	r3, [r0, r3]
	add	r0, r1, r3
	ldr	r3, .L381+4
	lsl	r1, r2, #2
	str	r0, [r1, r3]
	add	r2, r2, #1
	ldr	r3, .L381
	str	r2, [r3, #16]
	.loc 1 1060 0
	ldr	r3, .L381
	ldr	r2, [r3, #16]
	ldr	r3, .L381
	ldr	r3, [r3, #20]
	cmp	r2, r3
	blt	.L347
	.loc 1 1061 0
	ldr	r3, .L381
	mov	r2, #0
	str	r2, [r3, #16]
.L347:
	.loc 1 1063 0
	ldr	r2, [r7, #16]
	ldr	r3, .L381+24
	lsl	r2, r2, #2
	ldr	r3, [r2, r3]
	ldr	r2, [r7, #52]
	mul	r2, r3
	ldr	r3, [r7, #60]
	ldr	r1, [r7, #56]
	mul	r3, r1
	add	r3, r2, r3
	cmp	r3, #0
	bge	.L348
	add	r3, r3, #127
.L348:
	asr	r3, r3, #7
	str	r3, [r7, #48]
	.loc 1 1064 0
	ldr	r2, [r7, #48]
	ldr	r3, .L381+28
	cmp	r2, r3
	bge	.L349
	ldr	r3, .L381+28
	str	r3, [r7, #48]
	b	.L350
.L349:
	ldr	r2, [r7, #48]
	ldr	r3, .L381+32
	cmp	r2, r3
	ble	.L350
	ldr	r3, .L381+32
	str	r3, [r7, #48]
.L350:
	.loc 1 1065 0
	ldr	r3, [r7, #16]
	lsl	r2, r3, #1
	ldr	r3, [r7, #12]
	add	r3, r2, r3
	ldr	r2, [r7, #48]
	lsl	r2, r2, #16
	lsr	r2, r2, #16
	strh	r2, [r3]
.LBE33:
	.loc 1 1054 0
	ldr	r3, [r7, #16]
	add	r3, r3, #1
	str	r3, [r7, #16]
.L345:
	mov	r3, #1
	ldr	r1, [r7, #16]
	ldr	r2, [r7, #8]
	cmp	r1, r2
	blt	.L351
	mov	r3, #0
.L351:
	lsl	r3, r3, #24
	lsr	r3, r3, #24
	cmp	r3, #0
	bne	.L352
.LBE32:
	.loc 1 976 0
	b	.L378
.L344:
.LBB35:
	.loc 1 1071 0
	mov	r3, #0
	str	r3, [r7, #16]
	b	.L353
.L382:
	.align	2
.L381:
	.word	SoundData
	.word	Echo
	.word	Z
	.word	Loop
	.word	FilterTaps
	.word	EchoBuffer
	.word	MixBuffer
	.word	-32768
	.word	32767
	.word	1748
	.word	1756
.L361:
.LBB34:
	.loc 1 1073 0
	ldr	r3, .L383
	ldr	r2, [r3, #16]
	ldr	r3, .L383+4
	lsl	r2, r2, #2
	ldr	r4, [r2, r3]
	.loc 1 1075 0
	ldr	r3, .L383+8
	ldr	r2, [r3]
	mov	r3, #7
	and	r2, r2, r3
	ldr	r3, .L383+12
	lsl	r2, r2, #2
	str	r4, [r2, r3]
	.loc 1 1076 0
	ldr	r3, .L383+16
	ldr	r3, [r3]
	mul	r4, r3
	.loc 1 1077 0
	ldr	r3, .L383+8
	ldr	r3, [r3]
	sub	r2, r3, #1
	mov	r3, #7
	and	r2, r2, r3
	ldr	r3, .L383+12
	lsl	r2, r2, #2
	ldr	r2, [r2, r3]
	ldr	r3, .L383+16
	ldr	r3, [r3, #4]
	mul	r3, r2
	add	r4, r4, r3
	.loc 1 1078 0
	ldr	r3, .L383+8
	ldr	r3, [r3]
	sub	r2, r3, #2
	mov	r3, #7
	and	r2, r2, r3
	ldr	r3, .L383+12
	lsl	r2, r2, #2
	ldr	r2, [r2, r3]
	ldr	r3, .L383+16
	ldr	r3, [r3, #8]
	mul	r3, r2
	add	r4, r4, r3
	.loc 1 1079 0
	ldr	r3, .L383+8
	ldr	r3, [r3]
	sub	r2, r3, #3
	mov	r3, #7
	and	r2, r2, r3
	ldr	r3, .L383+12
	lsl	r2, r2, #2
	ldr	r2, [r2, r3]
	ldr	r3, .L383+16
	ldr	r3, [r3, #12]
	mul	r3, r2
	add	r4, r4, r3
	.loc 1 1080 0
	ldr	r3, .L383+8
	ldr	r3, [r3]
	sub	r2, r3, #4
	mov	r3, #7
	and	r2, r2, r3
	ldr	r3, .L383+12
	lsl	r2, r2, #2
	ldr	r2, [r2, r3]
	ldr	r3, .L383+16
	ldr	r3, [r3, #16]
	mul	r3, r2
	add	r4, r4, r3
	.loc 1 1081 0
	ldr	r3, .L383+8
	ldr	r3, [r3]
	sub	r2, r3, #5
	mov	r3, #7
	and	r2, r2, r3
	ldr	r3, .L383+12
	lsl	r2, r2, #2
	ldr	r2, [r2, r3]
	ldr	r3, .L383+16
	ldr	r3, [r3, #20]
	mul	r3, r2
	add	r4, r4, r3
	.loc 1 1082 0
	ldr	r3, .L383+8
	ldr	r3, [r3]
	sub	r2, r3, #6
	mov	r3, #7
	and	r2, r2, r3
	ldr	r3, .L383+12
	lsl	r2, r2, #2
	ldr	r2, [r2, r3]
	ldr	r3, .L383+16
	ldr	r3, [r3, #24]
	mul	r3, r2
	add	r4, r4, r3
	.loc 1 1083 0
	ldr	r3, .L383+8
	ldr	r3, [r3]
	sub	r2, r3, #7
	mov	r3, #7
	and	r2, r2, r3
	ldr	r3, .L383+12
	lsl	r2, r2, #2
	ldr	r2, [r2, r3]
	ldr	r3, .L383+16
	ldr	r3, [r3, #28]
	mul	r3, r2
	add	r4, r4, r3
	.loc 1 1084 0
	mov	r3, r4
	cmp	r3, #0
	bge	.L354
	add	r3, r3, #127
.L354:
	asr	r3, r3, #7
	mov	r4, r3
	.loc 1 1085 0
	ldr	r3, .L383+8
	ldr	r3, [r3]
	add	r2, r3, #1
	ldr	r3, .L383+8
	str	r2, [r3]
	.loc 1 1087 0
	ldr	r3, .L383
	ldr	r2, [r3, #16]
	ldr	r3, .L383
	ldr	r3, [r3, #12]
	mul	r3, r4
	cmp	r3, #0
	bge	.L355
	add	r3, r3, #127
.L355:
	asr	r3, r3, #7
	mov	r1, r3
	ldr	r0, [r7, #16]
	ldr	r3, .L383+20
	lsl	r0, r0, #2
	ldr	r3, [r0, r3]
	add	r0, r1, r3
	ldr	r3, .L383+4
	lsl	r1, r2, #2
	str	r0, [r1, r3]
	add	r2, r2, #1
	ldr	r3, .L383
	str	r2, [r3, #16]
	.loc 1 1089 0
	ldr	r3, .L383
	ldr	r2, [r3, #16]
	ldr	r3, .L383
	ldr	r3, [r3, #20]
	cmp	r2, r3
	blt	.L356
	.loc 1 1090 0
	ldr	r3, .L383
	mov	r2, #0
	str	r2, [r3, #16]
.L356:
	.loc 1 1092 0
	ldr	r2, [r7, #16]
	ldr	r3, .L383+24
	lsl	r2, r2, #2
	ldr	r3, [r2, r3]
	ldr	r2, [r7, #52]
	mul	r2, r3
	ldr	r3, [r7, #56]
	mul	r3, r4
	add	r3, r2, r3
	cmp	r3, #0
	bge	.L357
	add	r3, r3, #127
.L357:
	asr	r3, r3, #7
	str	r3, [r7, #48]
	.loc 1 1093 0
	ldr	r2, [r7, #48]
	ldr	r3, .L383+28
	cmp	r2, r3
	bge	.L358
	ldr	r3, .L383+28
	str	r3, [r7, #48]
	b	.L359
.L358:
	ldr	r2, [r7, #48]
	ldr	r3, .L383+32
	cmp	r2, r3
	ble	.L359
	ldr	r3, .L383+32
	str	r3, [r7, #48]
.L359:
	.loc 1 1094 0
	ldr	r3, [r7, #16]
	lsl	r2, r3, #1
	ldr	r3, [r7, #12]
	add	r3, r2, r3
	ldr	r2, [r7, #48]
	lsl	r2, r2, #16
	lsr	r2, r2, #16
	strh	r2, [r3]
.LBE34:
	.loc 1 1071 0
	ldr	r3, [r7, #16]
	add	r3, r3, #1
	str	r3, [r7, #16]
.L353:
	mov	r3, #1
	ldr	r1, [r7, #16]
	ldr	r2, [r7, #8]
	cmp	r1, r2
	blt	.L360
	mov	r3, #0
.L360:
	lsl	r3, r3, #24
	lsr	r3, r3, #24
	cmp	r3, #0
	beq	.LCB5684
	b	.L361	@long jump
.LCB5684:
.LBE35:
	.loc 1 976 0
	b	.L378
.L314:
.LBB36:
	.loc 1 1101 0
	ldr	r2, .L383
	ldr	r3, .L383+36
	ldr	r3, [r2, r3]
	str	r3, [r7, #68]
	.loc 1 1103 0
	ldr	r3, .L383+40
	ldrb	r3, [r3, #4]
	cmp	r3, #0
	beq	.L362
.LBB37:
	.loc 1 1105 0
	ldr	r2, .L383
	mov	r3, #219
	lsl	r3, r3, #3
	ldr	r3, [r2, r3]
	str	r3, [r7, #76]
	.loc 1 1108 0
	mov	r3, #0
	str	r3, [r7, #16]
	b	.L363
.L371:
	.loc 1 1110 0
	ldr	r2, [r7, #16]
	ldr	r3, .L383+24
	lsl	r2, r2, #2
	ldr	r3, [r2, r3]
	ldr	r2, [r7, #68]
	mul	r3, r2
	cmp	r3, #0
	bge	.L364
	add	r3, r3, #127
.L364:
	asr	r3, r3, #7
	str	r3, [r7, #64]
	.loc 1 1111 0
	ldr	r3, [r7, #16]
	add	r2, r3, #1
	ldr	r3, .L383+24
	lsl	r2, r2, #2
	ldr	r3, [r2, r3]
	ldr	r2, [r7, #76]
	mul	r3, r2
	cmp	r3, #0
	bge	.L365
	add	r3, r3, #127
.L365:
	asr	r3, r3, #7
	str	r3, [r7, #72]
	.loc 1 1113 0
	ldr	r2, [r7, #64]
	ldr	r3, .L383+28
	cmp	r2, r3
	bge	.L366
	ldr	r3, .L383+28
	str	r3, [r7, #64]
	b	.L367
.L366:
	ldr	r2, [r7, #64]
	ldr	r3, .L383+32
	cmp	r2, r3
	ble	.L367
	ldr	r3, .L383+32
	str	r3, [r7, #64]
.L367:
	.loc 1 1114 0
	ldr	r2, [r7, #72]
	ldr	r3, .L383+28
	cmp	r2, r3
	bge	.L368
	ldr	r3, .L383+28
	str	r3, [r7, #72]
	b	.L369
.L368:
	ldr	r2, [r7, #72]
	ldr	r3, .L383+32
	cmp	r2, r3
	ble	.L369
	ldr	r3, .L383+32
	str	r3, [r7, #72]
.L369:
	.loc 1 1115 0
	ldr	r3, [r7, #16]
	lsl	r2, r3, #1
	ldr	r3, [r7, #12]
	add	r3, r2, r3
	ldr	r2, [r7, #64]
	lsl	r2, r2, #16
	lsr	r2, r2, #16
	strh	r2, [r3]
	.loc 1 1116 0
	ldr	r3, [r7, #16]
	add	r3, r3, #1
	lsl	r2, r3, #1
	ldr	r3, [r7, #12]
	add	r3, r2, r3
	ldr	r2, [r7, #72]
	lsl	r2, r2, #16
	lsr	r2, r2, #16
	strh	r2, [r3]
	.loc 1 1108 0
	ldr	r3, [r7, #16]
	add	r3, r3, #2
	str	r3, [r7, #16]
.L363:
	mov	r3, #1
	ldr	r1, [r7, #16]
	ldr	r2, [r7, #8]
	cmp	r1, r2
	blt	.L370
	mov	r3, #0
.L370:
	lsl	r3, r3, #24
	lsr	r3, r3, #24
	cmp	r3, #0
	bne	.L371
	b	.L378
.L362:
.LBE37:
	.loc 1 1122 0
	mov	r3, #0
	str	r3, [r7, #16]
	b	.L372
.L377:
	.loc 1 1124 0
	ldr	r2, [r7, #16]
	ldr	r3, .L383+24
	lsl	r2, r2, #2
	ldr	r3, [r2, r3]
	ldr	r2, [r7, #68]
	mul	r3, r2
	cmp	r3, #0
	bge	.L373
	add	r3, r3, #127
.L373:
	asr	r3, r3, #7
	str	r3, [r7, #64]
	.loc 1 1126 0
	ldr	r2, [r7, #64]
	ldr	r3, .L383+28
	cmp	r2, r3
	bge	.L374
	ldr	r3, .L383+28
	str	r3, [r7, #64]
	b	.L375
.L374:
	ldr	r2, [r7, #64]
	ldr	r3, .L383+32
	cmp	r2, r3
	ble	.L375
	ldr	r3, .L383+32
	str	r3, [r7, #64]
.L375:
	.loc 1 1127 0
	ldr	r3, [r7, #16]
	lsl	r2, r3, #1
	ldr	r3, [r7, #12]
	add	r3, r2, r3
	ldr	r2, [r7, #64]
	lsl	r2, r2, #16
	lsr	r2, r2, #16
	strh	r2, [r3]
	.loc 1 1122 0
	ldr	r3, [r7, #16]
	add	r3, r3, #1
	str	r3, [r7, #16]
.L372:
	mov	r3, #1
	ldr	r1, [r7, #16]
	ldr	r2, [r7, #8]
	cmp	r1, r2
	blt	.L376
	mov	r3, #0
.L376:
	lsl	r3, r3, #24
	lsr	r3, r3, #24
	cmp	r3, #0
	bne	.L377
.L378:
.LBE36:
.LBE27:
	.loc 1 1131 0
	mov	sp, r7
	add	sp, sp, #84
	@ sp needed for prologue
	pop	{r4, r7, pc}
.L384:
	.align	2
.L383:
	.word	SoundData
	.word	Echo
	.word	Z
	.word	Loop
	.word	FilterTaps
	.word	EchoBuffer
	.word	MixBuffer
	.word	-32768
	.word	32767
	.word	1748
	.word	so
.LFE47:
	.cantunwind
	.fnend
	.size	S9xMixSamplesO, .-S9xMixSamplesO
	.align	2
	.global	_Z13S9xResetSoundh
	.hidden	_Z13S9xResetSoundh
	.code	16
	.thumb_func
	.type	_Z13S9xResetSoundh, %function
_Z13S9xResetSoundh:
	.fnstart
.LFB48:
	.loc 1 1138 0
	.save	{r4, r7, lr}
	push	{r4, r7, lr}
.LCFI60:
	sub	sp, sp, #20
.LCFI61:
	add	r7, sp, #0
.LCFI62:
	mov	r2, r0
	add	r3, r7, #7
	strb	r2, [r3]
.LBB38:
.LBB39:
	.loc 1 1139 0
	mov	r3, #0
	str	r3, [r7, #12]
	b	.L386
.L387:
	.loc 1 1141 0
	ldr	r2, [r7, #12]
	ldr	r3, .L390
	mov	r1, #212
	mul	r2, r1
	add	r3, r2, r3
	add	r3, r3, #48
	mov	r2, #0
	str	r2, [r3]
	.loc 1 1142 0
	ldr	r1, [r7, #12]
	ldr	r2, .L390
	mov	r3, #180
	mov	r0, #212
	mul	r1, r0
	add	r2, r1, r2
	add	r3, r2, r3
	mov	r2, #0
	str	r2, [r3]
	.loc 1 1143 0
	ldr	r2, [r7, #12]
	ldr	r3, .L390
	mov	r1, #212
	mul	r2, r1
	add	r3, r2, r3
	add	r3, r3, #52
	mov	r2, #0
	str	r2, [r3]
	.loc 1 1144 0
	ldr	r1, [r7, #12]
	ldr	r2, .L390
	mov	r3, #56
	mov	r0, #212
	mul	r1, r0
	add	r2, r1, r2
	add	r3, r2, r3
	mov	r2, #0
	strh	r2, [r3]
	.loc 1 1145 0
	ldr	r1, [r7, #12]
	ldr	r2, .L390
	mov	r3, #56
	mov	r0, #212
	mul	r1, r0
	add	r2, r1, r2
	add	r3, r2, r3
	mov	r2, #0
	strh	r2, [r3, #2]
	.loc 1 1146 0
	ldr	r2, [r7, #12]
	ldr	r3, .L390
	mov	r1, #212
	mul	r2, r1
	add	r3, r2, r3
	add	r3, r3, #60
	mov	r2, #0
	str	r2, [r3]
	.loc 1 1147 0
	ldr	r2, [r7, #12]
	ldr	r3, .L390
	mov	r1, #212
	mul	r2, r1
	add	r3, r2, r3
	add	r3, r3, #68
	mov	r2, #0
	str	r2, [r3]
	.loc 1 1148 0
	ldr	r1, [r7, #12]
	ldr	r2, .L390
	mov	r3, #72
	mov	r0, #212
	mul	r1, r0
	add	r2, r1, r2
	add	r3, r2, r3
	mov	r2, #0
	strb	r2, [r3]
	.loc 1 1149 0
	ldr	r1, [r7, #12]
	ldr	r2, .L390
	mov	r3, #80
	mov	r0, #212
	mul	r1, r0
	add	r2, r1, r2
	add	r3, r2, r3
	mov	r2, #0
	strh	r2, [r3, #4]
	.loc 1 1150 0
	ldr	r2, [r7, #12]
	ldr	r3, .L390
	mov	r1, #212
	mul	r2, r1
	add	r3, r2, r3
	add	r3, r3, #88
	mov	r2, #0
	str	r2, [r3]
	.loc 1 1151 0
	ldr	r2, [r7, #12]
	ldr	r3, .L390
	mov	r1, #212
	mul	r2, r1
	add	r3, r2, r3
	add	r3, r3, #92
	mov	r2, #0
	str	r2, [r3]
	.loc 1 1152 0
	ldr	r2, [r7, #12]
	ldr	r3, .L390
	mov	r1, #212
	mul	r2, r1
	add	r3, r2, r3
	add	r3, r3, #76
	mov	r2, #0
	str	r2, [r3]
	.loc 1 1153 0
	ldr	r1, [r7, #12]
	ldr	r2, .L390
	mov	r3, #184
	mov	r0, #212
	mul	r1, r0
	add	r2, r1, r2
	add	r3, r2, r3
	mov	r2, #0
	str	r2, [r3]
	.loc 1 1154 0
	ldr	r1, [r7, #12]
	ldr	r2, .L390
	mov	r3, #80
	mov	r0, #212
	mul	r1, r0
	add	r2, r1, r2
	add	r3, r2, r3
	mov	r2, #0
	strh	r2, [r3]
	.loc 1 1155 0
	ldr	r1, [r7, #12]
	ldr	r2, .L390
	mov	r3, #80
	mov	r0, #212
	mul	r1, r0
	add	r2, r1, r2
	add	r3, r2, r3
	mov	r2, #0
	strh	r2, [r3, #2]
	.loc 1 1156 0
	ldr	r2, [r7, #12]
	ldr	r3, .L390
	mov	r1, #212
	mul	r2, r1
	add	r3, r2, r3
	add	r3, r3, #96
	mov	r2, #0
	str	r2, [r3]
	.loc 1 1157 0
	ldr	r2, [r7, #12]
	ldr	r3, .L390
	mov	r1, #212
	mul	r2, r1
	add	r3, r2, r3
	add	r3, r3, #100
	mov	r2, #0
	str	r2, [r3]
	.loc 1 1158 0
	ldr	r2, [r7, #12]
	ldr	r3, .L390
	mov	r1, #212
	mul	r2, r1
	add	r3, r2, r3
	add	r3, r3, #104
	mov	r2, #0
	str	r2, [r3]
	.loc 1 1159 0
	ldr	r2, [r7, #12]
	ldr	r3, .L390
	mov	r1, #212
	mul	r2, r1
	add	r3, r2, r3
	add	r3, r3, #108
	mov	r2, #0
	str	r2, [r3]
	.loc 1 1160 0
	ldr	r2, [r7, #12]
	ldr	r3, .L390
	mov	r1, #212
	mul	r2, r1
	add	r3, r2, r3
	add	r3, r3, #112
	mov	r2, #0
	str	r2, [r3]
	.loc 1 1161 0
	ldr	r2, [r7, #12]
	ldr	r3, .L390
	mov	r1, #212
	mul	r2, r1
	add	r3, r2, r3
	add	r3, r3, #116
	mov	r2, #0
	str	r2, [r3]
	.loc 1 1163 0
	ldr	r1, [r7, #12]
	ldr	r2, .L390
	mov	r3, #200
	mov	r0, #212
	mul	r1, r0
	add	r2, r1, r2
	add	r3, r2, r3
	mov	r2, #0
	strb	r2, [r3, #4]
	.loc 1 1164 0
	ldr	r1, [r7, #12]
	ldr	r2, .L390
	mov	r3, #200
	mov	r0, #212
	mul	r1, r0
	add	r2, r1, r2
	add	r3, r2, r3
	mov	r2, #0
	strb	r2, [r3, #5]
	.loc 1 1165 0
	ldr	r1, [r7, #12]
	ldr	r2, .L390
	mov	r3, #200
	mov	r0, #212
	mul	r1, r0
	add	r2, r1, r2
	add	r3, r2, r3
	mov	r2, #0
	strb	r2, [r3, #6]
	.loc 1 1166 0
	ldr	r3, .L390
	mov	r2, #0
	str	r2, [r3, #16]
	.loc 1 1167 0
	ldr	r3, .L390
	mov	r2, #0
	str	r2, [r3, #12]
	.loc 1 1168 0
	ldr	r3, .L390
	mov	r2, #1
	str	r2, [r3, #20]
	.loc 1 1139 0
	ldr	r3, [r7, #12]
	add	r3, r3, #1
	str	r3, [r7, #12]
.L386:
	ldr	r3, [r7, #12]
	mov	r2, #7
	lsr	r0, r3, #31
	asr	r1, r2, #31
	mov	r4, r0
	cmp	r2, r3
	adc	r4, r4, r1
	mov	r3, r4
	lsl	r3, r3, #24
	lsr	r3, r3, #24
	cmp	r3, #0
	beq	.LCB6147
	b	.L387	@long jump
.LCB6147:
.LBE39:
	.loc 1 1170 0
	ldr	r3, .L390+4
	mov	r2, #127
	str	r2, [r3]
	.loc 1 1171 0
	ldr	r3, .L390+4
	mov	r2, #0
	str	r2, [r3, #4]
	.loc 1 1172 0
	ldr	r3, .L390+4
	mov	r2, #0
	str	r2, [r3, #8]
	.loc 1 1173 0
	ldr	r3, .L390+4
	mov	r2, #0
	str	r2, [r3, #12]
	.loc 1 1174 0
	ldr	r3, .L390+4
	mov	r2, #0
	str	r2, [r3, #16]
	.loc 1 1175 0
	ldr	r3, .L390+4
	mov	r2, #0
	str	r2, [r3, #20]
	.loc 1 1176 0
	ldr	r3, .L390+4
	mov	r2, #0
	str	r2, [r3, #24]
	.loc 1 1177 0
	ldr	r3, .L390+4
	mov	r2, #0
	str	r2, [r3, #28]
	.loc 1 1178 0
	ldr	r3, .L390+8
	mov	r2, #1
	strb	r2, [r3, #5]
	.loc 1 1179 0
	ldr	r3, .L390+8
	mov	r2, #1
	str	r2, [r3, #8]
	.loc 1 1180 0
	ldr	r2, .L390+8
	mov	r3, #1
	neg	r3, r3
	strb	r3, [r2, #6]
	.loc 1 1182 0
	add	r3, r7, #7
	ldrb	r3, [r3]
	cmp	r3, #0
	beq	.L388
	.loc 1 1184 0
	ldr	r3, .L390
	mov	r2, #0
	strh	r2, [r3]
	.loc 1 1185 0
	ldr	r3, .L390
	mov	r2, #0
	strh	r2, [r3, #2]
	.loc 1 1186 0
	ldr	r3, .L390
	mov	r2, #0
	strh	r2, [r3, #4]
	.loc 1 1187 0
	ldr	r3, .L390
	mov	r2, #0
	strh	r2, [r3, #6]
	.loc 1 1188 0
	ldr	r3, .L390
	mov	r2, #0
	str	r2, [r3, #8]
	.loc 1 1189 0
	ldr	r3, .L390
	mov	r2, #0
	str	r2, [r3, #24]
	.loc 1 1190 0
	ldr	r3, .L390
	mov	r2, #0
	str	r2, [r3, #28]
	.loc 1 1191 0
	ldr	r3, .L390
	mov	r2, #0
	str	r2, [r3, #32]
	.loc 1 1192 0
	ldr	r3, .L390
	mov	r2, #0
	str	r2, [r3, #36]
	.loc 1 1193 0
	ldr	r3, .L390
	mov	r2, #0
	str	r2, [r3, #40]
	.loc 1 1194 0
	ldr	r3, .L390
	mov	r2, #0
	str	r2, [r3, #44]
	.loc 1 1195 0
	ldr	r2, .L390
	ldr	r3, .L390+12
	mov	r1, #0
	str	r1, [r2, r3]
	.loc 1 1196 0
	ldr	r2, .L390
	mov	r3, #219
	lsl	r3, r3, #3
	mov	r1, #0
	str	r1, [r2, r3]
	.loc 1 1197 0
	ldr	r2, .L390
	ldr	r3, .L390+16
	mov	r1, #0
	str	r1, [r2, r3]
	.loc 1 1198 0
	ldr	r2, .L390
	mov	r3, #220
	lsl	r3, r3, #3
	mov	r1, #0
	str	r1, [r2, r3]
	.loc 1 1199 0
	ldr	r2, .L390
	ldr	r3, .L390+20
	mov	r1, #0
	str	r1, [r2, r3]
.L388:
	.loc 1 1202 0
	ldr	r3, .L390
	mov	r2, #127
	strh	r2, [r3]
	.loc 1 1203 0
	ldr	r3, .L390
	mov	r2, #127
	strh	r2, [r3, #2]
	.loc 1 1204 0
	ldr	r2, .L390
	mov	r3, #219
	lsl	r3, r3, #3
	mov	r1, #127
	str	r1, [r2, r3]
	ldr	r2, .L390
	mov	r3, #219
	lsl	r3, r3, #3
	ldr	r1, [r2, r3]
	ldr	r2, .L390
	ldr	r3, .L390+12
	str	r1, [r2, r3]
	.loc 1 1205 0
	ldr	r2, .L390
	mov	r3, #218
	lsl	r3, r3, #3
	mov	r1, #1
	strb	r1, [r2, r3]
.LBE38:
	.loc 1 1206 0
	mov	sp, r7
	add	sp, sp, #20
	@ sp needed for prologue
	pop	{r4, r7, pc}
.L391:
	.align	2
.L390:
	.word	SoundData
	.word	FilterTaps
	.word	so
	.word	1748
	.word	1756
	.word	1764
.LFE48:
	.cantunwind
	.fnend
	.size	_Z13S9xResetSoundh, .-_Z13S9xResetSoundh
	.global	__aeabi_uidiv
	.global	__aeabi_ldivmod
	.align	2
	.global	_Z18S9xSetPlaybackRatej
	.hidden	_Z18S9xSetPlaybackRatej
	.code	16
	.thumb_func
	.type	_Z18S9xSetPlaybackRatej, %function
_Z18S9xSetPlaybackRatej:
	.fnstart
.LFB49:
	.loc 1 1218 0
	.save	{r4, r5, r6, r7, lr}
	push	{r4, r5, r6, r7, lr}
.LCFI63:
	mov	r7, sl
	mov	r6, r8
	.save	{r8, sl}
	push	{r6, r7}
.LCFI64:
	sub	sp, sp, #260
.LCFI65:
	add	r7, sp, #0
.LCFI66:
	mov	r1, #236
	add	r1, r1, r7
	str	r0, [r1]
.LBB40:
	.loc 1 1219 0
	mov	r3, #236
	add	r3, r3, r7
	ldr	r2, [r3]
	ldr	r3, .L419
	str	r2, [r3]
	.loc 1 1221 0
	mov	r4, #236
	add	r4, r4, r7
	ldr	r3, [r4]
	cmp	r3, #0
	bne	.LCB6308
	b	.L393	@long jump
.LCB6308:
.LBB41:
	.loc 1 1223 0
	mov	r0, #128
	lsl	r0, r0, #20
	mov	r2, #236
	add	r2, r2, r7
	ldr	r1, [r2]
	bl	__aeabi_uidiv
	mov	r3, r0
	mov	r2, r3
	ldr	r3, .L419
	str	r2, [r3, #12]
	.loc 1 1231 0
	mov	r3, #0
	mov	r4, #244
	add	r4, r4, r7
	str	r3, [r4]
	b	.L394
.L397:
	.loc 1 1232 0
	mov	r3, #0
	mov	r0, #248
	add	r0, r0, r7
	str	r3, [r0]
	b	.L395
.L396:
	.loc 1 1233 0
	mov	r1, #244
	add	r1, r1, r7
	ldr	r1, [r1]
	mov	r8, r1
	mov	r2, #248
	add	r2, r2, r7
	ldr	r2, [r2]
	mov	sl, r2
	mov	r4, #248
	add	r4, r4, r7
	ldr	r3, [r4]
	ldr	r2, .L419+4
	lsl	r3, r3, #2
	ldr	r3, [r3, r2]
	.loc 1 1234 0
	mov	r5, r3
	asr	r3, r3, #31
	mov	r6, r3
	mov	r3, r5
	mov	r4, r6
	lsr	r2, r3, #27
	lsl	r0, r4, #5
	mov	r1, #140
	add	r1, r1, r7
	str	r0, [r1]
	mov	r1, #140
	add	r1, r1, r7
	ldr	r0, [r1]
	orr	r0, r0, r2
	str	r0, [r1]
	lsl	r2, r3, #5
	mov	r0, #136
	add	r0, r0, r7
	str	r2, [r0]
	mov	r1, #136
	add	r1, r1, r7
	ldr	r3, [r1]
	ldr	r4, [r1, #4]
	sub	r3, r3, r5
	sbc	r4, r4, r6
	lsr	r2, r3, #30
	lsl	r0, r4, #2
	mov	r1, #132
	add	r1, r1, r7
	str	r0, [r1]
	mov	r1, #132
	add	r1, r1, r7
	ldr	r0, [r1]
	orr	r0, r0, r2
	str	r0, [r1]
	lsl	r2, r3, #2
	mov	r0, #128
	add	r0, r0, r7
	str	r2, [r0]
	mov	r1, #128
	add	r1, r1, r7
	ldr	r3, [r1]
	ldr	r4, [r1, #4]
	add	r3, r3, r5
	adc	r4, r4, r6
	lsr	r2, r3, #13
	lsl	r0, r4, #19
	str	r0, [r7, #124]
	ldr	r1, [r7, #124]
	orr	r1, r1, r2
	str	r1, [r7, #124]
	lsl	r2, r3, #19
	str	r2, [r7, #120]
	ldr	r0, [r7, #120]
	ldr	r1, [r7, #124]
	mov	r4, #244
	add	r4, r4, r7
	ldr	r3, [r4]
	ldr	r2, .L419+8
	lsl	r3, r3, #2
	ldr	r2, [r3, r2]
	mov	r4, #236
	add	r4, r4, r7
	ldr	r3, [r4]
	mul	r3, r2
	mov	r2, #144
	add	r2, r2, r7
	str	r3, [r2]
	mov	r3, #0
	mov	r4, #148
	add	r4, r4, r7
	str	r3, [r4]
	mov	r4, #144
	add	r4, r4, r7
	ldr	r2, [r4]
	ldr	r3, [r4, #4]
	bl	__aeabi_ldivmod
	mov	r3, r0
	mov	r4, r1
	mov	r1, r3
	ldr	r2, .L419+12
	mov	r3, r8
	lsl	r3, r3, #2
	add	r3, r3, r8
	lsl	r3, r3, #1
	add	r3, r3, sl
	lsl	r3, r3, #2
	str	r1, [r3, r2]
	.loc 1 1232 0
	mov	r0, #248
	add	r0, r0, r7
	ldr	r3, [r0]
	add	r3, r3, #1
	mov	r1, #248
	add	r1, r1, r7
	str	r3, [r1]
.L395:
	mov	r2, #248
	add	r2, r2, r7
	ldr	r0, [r2]
	mov	r2, #9
	lsr	r1, r0, #31
	asr	r3, r2, #31
	cmp	r2, r0
	adc	r3, r3, r1
	lsl	r3, r3, #24
	lsr	r3, r3, #24
	cmp	r3, #0
	bne	.L396
	.loc 1 1231 0
	mov	r4, #244
	add	r4, r4, r7
	ldr	r3, [r4]
	add	r3, r3, #1
	mov	r0, #244
	add	r0, r0, r7
	str	r3, [r0]
.L394:
	mov	r1, #244
	add	r1, r1, r7
	ldr	r0, [r1]
	mov	r2, #15
	lsr	r1, r0, #31
	asr	r3, r2, #31
	cmp	r2, r0
	adc	r3, r3, r1
	lsl	r3, r3, #24
	lsr	r3, r3, #24
	cmp	r3, #0
	beq	.LCB6471
	b	.L397	@long jump
.LCB6471:
	.loc 1 1235 0
	mov	r3, #0
	mov	r2, #244
	add	r2, r2, r7
	str	r3, [r2]
	b	.L398
.L401:
	.loc 1 1236 0
	mov	r3, #0
	mov	r4, #248
	add	r4, r4, r7
	str	r3, [r4]
	b	.L399
.L400:
	.loc 1 1237 0
	mov	r0, #244
	add	r0, r0, r7
	ldr	r5, [r0]
	mov	r1, #248
	add	r1, r1, r7
	ldr	r6, [r1]
	mov	r2, #248
	add	r2, r2, r7
	ldr	r3, [r2]
	ldr	r2, .L419+4
	lsl	r3, r3, #2
	ldr	r3, [r3, r2]
	.loc 1 1238 0
	mov	r4, #152
	add	r4, r4, r7
	str	r3, [r4]
	asr	r3, r3, #31
	mov	r0, #156
	add	r0, r0, r7
	str	r3, [r0]
	mov	r1, #152
	add	r1, r1, r7
	ldr	r3, [r1]
	ldr	r4, [r1, #4]
	lsr	r2, r3, #27
	lsl	r0, r4, #5
	str	r0, [r7, #116]
	ldr	r1, [r7, #116]
	orr	r1, r1, r2
	str	r1, [r7, #116]
	lsl	r2, r3, #5
	str	r2, [r7, #112]
	ldr	r3, [r7, #112]
	ldr	r4, [r7, #116]
	mov	r1, #152
	add	r1, r1, r7
	ldr	r0, [r1]
	ldr	r1, [r1, #4]
	sub	r3, r3, r0
	sbc	r4, r4, r1
	lsr	r2, r3, #30
	lsl	r0, r4, #2
	str	r0, [r7, #108]
	ldr	r1, [r7, #108]
	orr	r1, r1, r2
	str	r1, [r7, #108]
	lsl	r2, r3, #2
	str	r2, [r7, #104]
	ldr	r3, [r7, #104]
	ldr	r4, [r7, #108]
	mov	r1, #152
	add	r1, r1, r7
	ldr	r0, [r1]
	ldr	r1, [r1, #4]
	add	r3, r3, r0
	adc	r4, r4, r1
	lsr	r2, r3, #13
	lsl	r0, r4, #19
	str	r0, [r7, #100]
	ldr	r1, [r7, #100]
	orr	r1, r1, r2
	str	r1, [r7, #100]
	lsl	r2, r3, #19
	str	r2, [r7, #96]
	ldr	r0, [r7, #96]
	ldr	r1, [r7, #100]
	mov	r4, #244
	add	r4, r4, r7
	ldr	r3, [r4]
	ldr	r2, .L419+16
	lsl	r3, r3, #2
	ldr	r2, [r3, r2]
	mov	r4, #236
	add	r4, r4, r7
	ldr	r3, [r4]
	mul	r3, r2
	mov	r2, #160
	add	r2, r2, r7
	str	r3, [r2]
	mov	r3, #0
	mov	r4, #164
	add	r4, r4, r7
	str	r3, [r4]
	mov	r4, #160
	add	r4, r4, r7
	ldr	r2, [r4]
	ldr	r3, [r4, #4]
	bl	__aeabi_ldivmod
	mov	r3, r0
	mov	r4, r1
	mov	r1, r3
	ldr	r2, .L419+20
	mov	r3, r5
	lsl	r3, r3, #2
	add	r3, r3, r5
	lsl	r3, r3, #1
	add	r3, r3, r6
	lsl	r3, r3, #2
	str	r1, [r3, r2]
	.loc 1 1236 0
	mov	r0, #248
	add	r0, r0, r7
	ldr	r3, [r0]
	add	r3, r3, #1
	mov	r1, #248
	add	r1, r1, r7
	str	r3, [r1]
.L399:
	mov	r2, #248
	add	r2, r2, r7
	ldr	r0, [r2]
	mov	r2, #9
	lsr	r1, r0, #31
	asr	r3, r2, #31
	cmp	r2, r0
	adc	r3, r3, r1
	lsl	r3, r3, #24
	lsr	r3, r3, #24
	cmp	r3, #0
	bne	.L400
	.loc 1 1235 0
	mov	r4, #244
	add	r4, r4, r7
	ldr	r3, [r4]
	add	r3, r3, #1
	mov	r0, #244
	add	r0, r0, r7
	str	r3, [r0]
.L398:
	mov	r1, #244
	add	r1, r1, r7
	ldr	r0, [r1]
	mov	r2, #7
	lsr	r1, r0, #31
	asr	r3, r2, #31
	cmp	r2, r0
	adc	r3, r3, r1
	lsl	r3, r3, #24
	lsr	r3, r3, #24
	cmp	r3, #0
	beq	.LCB6616
	b	.L401	@long jump
.LCB6616:
	.loc 1 1240 0
	mov	r3, #0
	mov	r2, #244
	add	r2, r2, r7
	str	r3, [r2]
	b	.L402
.L405:
	.loc 1 1241 0
	mov	r3, #0
	mov	r4, #248
	add	r4, r4, r7
	str	r3, [r4]
	b	.L403
.L420:
	.align	2
.L419:
	.word	so
	.word	_ZZ18S9xSetPlaybackRatejE5steps
	.word	AttackRate
	.word	AttackERate
	.word	DecayRate
	.word	DecayERate
.L404:
	.loc 1 1242 0
	mov	r0, #244
	add	r0, r0, r7
	ldr	r5, [r0]
	mov	r1, #248
	add	r1, r1, r7
	ldr	r6, [r1]
	mov	r2, #248
	add	r2, r2, r7
	ldr	r3, [r2]
	ldr	r2, .L421
	lsl	r3, r3, #2
	ldr	r3, [r3, r2]
	.loc 1 1243 0
	mov	r4, #168
	add	r4, r4, r7
	str	r3, [r4]
	asr	r3, r3, #31
	mov	r0, #172
	add	r0, r0, r7
	str	r3, [r0]
	mov	r1, #168
	add	r1, r1, r7
	ldr	r3, [r1]
	ldr	r4, [r1, #4]
	lsr	r2, r3, #27
	lsl	r0, r4, #5
	str	r0, [r7, #92]
	ldr	r1, [r7, #92]
	orr	r1, r1, r2
	str	r1, [r7, #92]
	lsl	r2, r3, #5
	str	r2, [r7, #88]
	ldr	r3, [r7, #88]
	ldr	r4, [r7, #92]
	mov	r1, #168
	add	r1, r1, r7
	ldr	r0, [r1]
	ldr	r1, [r1, #4]
	sub	r3, r3, r0
	sbc	r4, r4, r1
	lsr	r2, r3, #30
	lsl	r0, r4, #2
	str	r0, [r7, #84]
	ldr	r1, [r7, #84]
	orr	r1, r1, r2
	str	r1, [r7, #84]
	lsl	r2, r3, #2
	str	r2, [r7, #80]
	ldr	r3, [r7, #80]
	ldr	r4, [r7, #84]
	mov	r1, #168
	add	r1, r1, r7
	ldr	r0, [r1]
	ldr	r1, [r1, #4]
	add	r3, r3, r0
	adc	r4, r4, r1
	lsr	r2, r3, #13
	lsl	r0, r4, #19
	str	r0, [r7, #76]
	ldr	r1, [r7, #76]
	orr	r1, r1, r2
	str	r1, [r7, #76]
	lsl	r2, r3, #19
	str	r2, [r7, #72]
	ldr	r0, [r7, #72]
	ldr	r1, [r7, #76]
	mov	r4, #244
	add	r4, r4, r7
	ldr	r3, [r4]
	ldr	r2, .L421+4
	lsl	r3, r3, #2
	ldr	r2, [r3, r2]
	mov	r4, #236
	add	r4, r4, r7
	ldr	r3, [r4]
	mul	r3, r2
	mov	r2, #176
	add	r2, r2, r7
	str	r3, [r2]
	mov	r3, #0
	mov	r4, #180
	add	r4, r4, r7
	str	r3, [r4]
	mov	r4, #176
	add	r4, r4, r7
	ldr	r2, [r4]
	ldr	r3, [r4, #4]
	bl	__aeabi_ldivmod
	mov	r3, r0
	mov	r4, r1
	mov	r1, r3
	ldr	r2, .L421+8
	mov	r3, r5
	lsl	r3, r3, #2
	add	r3, r3, r5
	lsl	r3, r3, #1
	add	r3, r3, r6
	lsl	r3, r3, #2
	str	r1, [r3, r2]
	.loc 1 1241 0
	mov	r0, #248
	add	r0, r0, r7
	ldr	r3, [r0]
	add	r3, r3, #1
	mov	r1, #248
	add	r1, r1, r7
	str	r3, [r1]
.L403:
	mov	r2, #248
	add	r2, r2, r7
	ldr	r0, [r2]
	mov	r2, #9
	lsr	r1, r0, #31
	asr	r3, r2, #31
	cmp	r2, r0
	adc	r3, r3, r1
	lsl	r3, r3, #24
	lsr	r3, r3, #24
	cmp	r3, #0
	bne	.L404
	.loc 1 1240 0
	mov	r4, #244
	add	r4, r4, r7
	ldr	r3, [r4]
	add	r3, r3, #1
	mov	r0, #244
	add	r0, r0, r7
	str	r3, [r0]
.L402:
	mov	r1, #244
	add	r1, r1, r7
	ldr	r0, [r1]
	mov	r2, #31
	lsr	r1, r0, #31
	asr	r3, r2, #31
	cmp	r2, r0
	adc	r3, r3, r1
	lsl	r3, r3, #24
	lsr	r3, r3, #24
	cmp	r3, #0
	beq	.LCB6772
	b	.L405	@long jump
.LCB6772:
	.loc 1 1245 0
	mov	r3, #0
	mov	r2, #244
	add	r2, r2, r7
	str	r3, [r2]
	b	.L406
.L409:
	.loc 1 1246 0
	mov	r3, #0
	mov	r4, #248
	add	r4, r4, r7
	str	r3, [r4]
	b	.L407
.L408:
	.loc 1 1247 0
	mov	r0, #244
	add	r0, r0, r7
	ldr	r5, [r0]
	mov	r1, #248
	add	r1, r1, r7
	ldr	r6, [r1]
	mov	r2, #248
	add	r2, r2, r7
	ldr	r3, [r2]
	ldr	r2, .L421
	lsl	r3, r3, #2
	ldr	r3, [r3, r2]
	.loc 1 1248 0
	mov	r4, #184
	add	r4, r4, r7
	str	r3, [r4]
	asr	r3, r3, #31
	mov	r0, #188
	add	r0, r0, r7
	str	r3, [r0]
	mov	r1, #184
	add	r1, r1, r7
	ldr	r3, [r1]
	ldr	r4, [r1, #4]
	lsr	r2, r3, #27
	lsl	r0, r4, #5
	str	r0, [r7, #68]
	ldr	r1, [r7, #68]
	orr	r1, r1, r2
	str	r1, [r7, #68]
	lsl	r2, r3, #5
	str	r2, [r7, #64]
	ldr	r3, [r7, #64]
	ldr	r4, [r7, #68]
	mov	r1, #184
	add	r1, r1, r7
	ldr	r0, [r1]
	ldr	r1, [r1, #4]
	sub	r3, r3, r0
	sbc	r4, r4, r1
	lsr	r2, r3, #30
	lsl	r0, r4, #2
	str	r0, [r7, #60]
	ldr	r1, [r7, #60]
	orr	r1, r1, r2
	str	r1, [r7, #60]
	lsl	r2, r3, #2
	str	r2, [r7, #56]
	ldr	r3, [r7, #56]
	ldr	r4, [r7, #60]
	mov	r1, #184
	add	r1, r1, r7
	ldr	r0, [r1]
	ldr	r1, [r1, #4]
	add	r3, r3, r0
	adc	r4, r4, r1
	lsr	r2, r3, #13
	lsl	r0, r4, #19
	str	r0, [r7, #52]
	ldr	r1, [r7, #52]
	orr	r1, r1, r2
	str	r1, [r7, #52]
	lsl	r2, r3, #19
	str	r2, [r7, #48]
	ldr	r0, [r7, #48]
	ldr	r1, [r7, #52]
	mov	r4, #244
	add	r4, r4, r7
	ldr	r3, [r4]
	ldr	r2, .L421+12
	lsl	r3, r3, #2
	ldr	r2, [r3, r2]
	mov	r4, #236
	add	r4, r4, r7
	ldr	r3, [r4]
	mul	r3, r2
	mov	r2, #192
	add	r2, r2, r7
	str	r3, [r2]
	mov	r3, #0
	mov	r4, #196
	add	r4, r4, r7
	str	r3, [r4]
	mov	r4, #192
	add	r4, r4, r7
	ldr	r2, [r4]
	ldr	r3, [r4, #4]
	bl	__aeabi_ldivmod
	mov	r3, r0
	mov	r4, r1
	mov	r1, r3
	ldr	r2, .L421+16
	mov	r3, r5
	lsl	r3, r3, #2
	add	r3, r3, r5
	lsl	r3, r3, #1
	add	r3, r3, r6
	lsl	r3, r3, #2
	str	r1, [r3, r2]
	.loc 1 1246 0
	mov	r0, #248
	add	r0, r0, r7
	ldr	r3, [r0]
	add	r3, r3, #1
	mov	r1, #248
	add	r1, r1, r7
	str	r3, [r1]
.L407:
	mov	r2, #248
	add	r2, r2, r7
	ldr	r0, [r2]
	mov	r2, #9
	lsr	r1, r0, #31
	asr	r3, r2, #31
	cmp	r2, r0
	adc	r3, r3, r1
	lsl	r3, r3, #24
	lsr	r3, r3, #24
	cmp	r3, #0
	bne	.L408
	.loc 1 1245 0
	mov	r4, #244
	add	r4, r4, r7
	ldr	r3, [r4]
	add	r3, r3, #1
	mov	r0, #244
	add	r0, r0, r7
	str	r3, [r0]
.L406:
	mov	r1, #244
	add	r1, r1, r7
	ldr	r0, [r1]
	mov	r2, #31
	lsr	r1, r0, #31
	asr	r3, r2, #31
	cmp	r2, r0
	adc	r3, r3, r1
	lsl	r3, r3, #24
	lsr	r3, r3, #24
	cmp	r3, #0
	beq	.LCB6917
	b	.L409	@long jump
.LCB6917:
	.loc 1 1250 0
	mov	r3, #0
	mov	r2, #244
	add	r2, r2, r7
	str	r3, [r2]
	b	.L410
.L413:
	.loc 1 1251 0
	mov	r3, #0
	mov	r4, #248
	add	r4, r4, r7
	str	r3, [r4]
	b	.L411
.L412:
	.loc 1 1252 0
	mov	r0, #244
	add	r0, r0, r7
	ldr	r5, [r0]
	mov	r1, #248
	add	r1, r1, r7
	ldr	r6, [r1]
	mov	r2, #248
	add	r2, r2, r7
	ldr	r3, [r2]
	ldr	r2, .L421
	lsl	r3, r3, #2
	ldr	r3, [r3, r2]
	.loc 1 1253 0
	mov	r4, #200
	add	r4, r4, r7
	str	r3, [r4]
	asr	r3, r3, #31
	mov	r0, #204
	add	r0, r0, r7
	str	r3, [r0]
	mov	r1, #200
	add	r1, r1, r7
	ldr	r3, [r1]
	ldr	r4, [r1, #4]
	lsr	r2, r3, #27
	lsl	r0, r4, #5
	str	r0, [r7, #44]
	ldr	r1, [r7, #44]
	orr	r1, r1, r2
	str	r1, [r7, #44]
	lsl	r2, r3, #5
	str	r2, [r7, #40]
	ldr	r3, [r7, #40]
	ldr	r4, [r7, #44]
	mov	r1, #200
	add	r1, r1, r7
	ldr	r0, [r1]
	ldr	r1, [r1, #4]
	sub	r3, r3, r0
	sbc	r4, r4, r1
	lsr	r2, r3, #30
	lsl	r0, r4, #2
	str	r0, [r7, #36]
	ldr	r1, [r7, #36]
	orr	r1, r1, r2
	str	r1, [r7, #36]
	lsl	r2, r3, #2
	str	r2, [r7, #32]
	ldr	r3, [r7, #32]
	ldr	r4, [r7, #36]
	mov	r1, #200
	add	r1, r1, r7
	ldr	r0, [r1]
	ldr	r1, [r1, #4]
	add	r3, r3, r0
	adc	r4, r4, r1
	lsr	r2, r3, #13
	lsl	r0, r4, #19
	str	r0, [r7, #28]
	ldr	r1, [r7, #28]
	orr	r1, r1, r2
	str	r1, [r7, #28]
	lsl	r2, r3, #19
	str	r2, [r7, #24]
	ldr	r0, [r7, #24]
	ldr	r1, [r7, #28]
	mov	r4, #244
	add	r4, r4, r7
	ldr	r3, [r4]
	ldr	r2, .L421+20
	lsl	r3, r3, #2
	ldr	r3, [r3, r2]
	lsr	r2, r3, #1
	mov	r4, #236
	add	r4, r4, r7
	ldr	r3, [r4]
	mul	r3, r2
	mov	r2, #208
	add	r2, r2, r7
	str	r3, [r2]
	mov	r3, #0
	mov	r4, #212
	add	r4, r4, r7
	str	r3, [r4]
	mov	r4, #208
	add	r4, r4, r7
	ldr	r2, [r4]
	ldr	r3, [r4, #4]
	bl	__aeabi_ldivmod
	mov	r3, r0
	mov	r4, r1
	mov	r1, r3
	ldr	r2, .L421+24
	mov	r3, r5
	lsl	r3, r3, #2
	add	r3, r3, r5
	lsl	r3, r3, #1
	add	r3, r3, r6
	lsl	r3, r3, #2
	str	r1, [r3, r2]
	.loc 1 1251 0
	mov	r0, #248
	add	r0, r0, r7
	ldr	r3, [r0]
	add	r3, r3, #1
	mov	r1, #248
	add	r1, r1, r7
	str	r3, [r1]
.L411:
	mov	r2, #248
	add	r2, r2, r7
	ldr	r0, [r2]
	mov	r2, #9
	lsr	r1, r0, #31
	asr	r3, r2, #31
	cmp	r2, r0
	adc	r3, r3, r1
	lsl	r3, r3, #24
	lsr	r3, r3, #24
	cmp	r3, #0
	bne	.L412
	.loc 1 1250 0
	mov	r4, #244
	add	r4, r4, r7
	ldr	r3, [r4]
	add	r3, r3, #1
	mov	r0, #244
	add	r0, r0, r7
	str	r3, [r0]
.L410:
	mov	r1, #244
	add	r1, r1, r7
	ldr	r0, [r1]
	mov	r2, #31
	lsr	r1, r0, #31
	asr	r3, r2, #31
	cmp	r2, r0
	adc	r3, r3, r1
	lsl	r3, r3, #24
	lsr	r3, r3, #24
	cmp	r3, #0
	beq	.LCB7063
	b	.L413	@long jump
.LCB7063:
	.loc 1 1255 0
	mov	r3, #0
	mov	r2, #248
	add	r2, r2, r7
	str	r3, [r2]
	b	.L414
.L422:
	.align	2
.L421:
	.word	_ZZ18S9xSetPlaybackRatejE5steps
	.word	SustainRate
	.word	SustainERate
	.word	IncreaseRate
	.word	IncreaseERate
	.word	DecreaseRateExp
	.word	DecreaseERateExp
.L415:
	.loc 1 1256 0
	mov	r3, #248
	add	r3, r3, r7
	ldr	r5, [r3]
	mov	r4, #248
	add	r4, r4, r7
	ldr	r3, [r4]
	ldr	r2, .L423
	lsl	r3, r3, #2
	ldr	r3, [r3, r2]
	.loc 1 1257 0
	mov	r0, #216
	add	r0, r0, r7
	str	r3, [r0]
	asr	r3, r3, #31
	mov	r1, #220
	add	r1, r1, r7
	str	r3, [r1]
	mov	r2, #216
	add	r2, r2, r7
	ldr	r3, [r2]
	ldr	r4, [r2, #4]
	lsr	r2, r3, #27
	lsl	r0, r4, #5
	str	r0, [r7, #20]
	ldr	r1, [r7, #20]
	orr	r1, r1, r2
	str	r1, [r7, #20]
	lsl	r2, r3, #5
	str	r2, [r7, #16]
	ldr	r3, [r7, #16]
	ldr	r4, [r7, #20]
	mov	r1, #216
	add	r1, r1, r7
	ldr	r0, [r1]
	ldr	r1, [r1, #4]
	sub	r3, r3, r0
	sbc	r4, r4, r1
	lsr	r2, r3, #30
	lsl	r0, r4, #2
	str	r0, [r7, #12]
	ldr	r1, [r7, #12]
	orr	r1, r1, r2
	str	r1, [r7, #12]
	lsl	r2, r3, #2
	str	r2, [r7, #8]
	ldr	r3, [r7, #8]
	ldr	r4, [r7, #12]
	mov	r1, #216
	add	r1, r1, r7
	ldr	r0, [r1]
	ldr	r1, [r1, #4]
	add	r3, r3, r0
	adc	r4, r4, r1
	lsr	r2, r3, #13
	lsl	r0, r4, #19
	str	r0, [r7, #4]
	ldr	r1, [r7, #4]
	orr	r1, r1, r2
	str	r1, [r7, #4]
	lsl	r2, r3, #19
	str	r2, [r7]
	ldr	r1, [r7]
	ldr	r2, [r7, #4]
	mov	r4, #236
	add	r4, r4, r7
	ldr	r3, [r4]
	lsl	r3, r3, #3
	mov	r0, #224
	add	r0, r0, r7
	str	r3, [r0]
	mov	r3, #0
	mov	r4, #228
	add	r4, r4, r7
	str	r3, [r4]
	mov	r0, r1
	mov	r1, r2
	mov	r4, #224
	add	r4, r4, r7
	ldr	r2, [r4]
	ldr	r3, [r4, #4]
	bl	__aeabi_ldivmod
	mov	r3, r0
	mov	r4, r1
	mov	r1, r3
	ldr	r2, .L423+4
	lsl	r3, r5, #2
	str	r1, [r3, r2]
	.loc 1 1255 0
	mov	r0, #248
	add	r0, r0, r7
	ldr	r3, [r0]
	add	r3, r3, #1
	mov	r1, #248
	add	r1, r1, r7
	str	r3, [r1]
.L414:
	mov	r3, #248
	add	r3, r3, r7
	ldr	r2, [r3]
	mov	r1, #9
	lsr	r0, r2, #31
	asr	r3, r1, #31
	cmp	r1, r2
	adc	r3, r3, r0
	lsl	r3, r3, #24
	lsr	r3, r3, #24
	cmp	r3, #0
	bne	.L415
.L393:
.LBE41:
	.loc 1 1260 0
	ldr	r2, .L423+8
	mov	r3, #136
	ldrb	r3, [r2, r3]
	mov	r2, r3
	mov	r3, #15
	and	r3, r3, r2
	mov	r0, r3
	bl	_Z15S9xSetEchoDelayi
.LBB42:
	.loc 1 1261 0
	mov	r3, #0
	mov	r4, #252
	add	r4, r4, r7
	str	r3, [r4]
	b	.L416
.L417:
	.loc 1 1262 0
	mov	r0, #252
	add	r0, r0, r7
	ldr	r2, [r0]
	ldr	r3, .L423+12
	mov	r1, #212
	mul	r2, r1
	add	r3, r2, r3
	add	r3, r3, #60
	ldr	r3, [r3]
	mov	r1, #252
	add	r1, r1, r7
	ldr	r2, [r1]
	mov	r0, r2
	mov	r1, r3
	bl	_ZL20S9xSetSoundFrequencyii
	.loc 1 1261 0
	mov	r2, #252
	add	r2, r2, r7
	ldr	r3, [r2]
	add	r3, r3, #1
	mov	r4, #252
	add	r4, r4, r7
	str	r3, [r4]
.L416:
	mov	r0, #252
	add	r0, r0, r7
	ldr	r3, [r0]
	mov	r2, #7
	lsr	r0, r3, #31
	asr	r1, r2, #31
	mov	r4, r0
	cmp	r2, r3
	adc	r4, r4, r1
	mov	r3, r4
	lsl	r3, r3, #24
	lsr	r3, r3, #24
	cmp	r3, #0
	bne	.L417
.LBE42:
.LBE40:
	.loc 1 1263 0
	mov	sp, r7
	add	sp, sp, #260
	@ sp needed for prologue
	pop	{r2, r3}
	mov	r8, r2
	mov	sl, r3
	pop	{r4, r5, r6, r7, pc}
.L424:
	.align	2
.L423:
	.word	_ZZ18S9xSetPlaybackRatejE5steps
	.word	KeyOffERate
	.word	APU
	.word	SoundData
.LFE49:
	.cantunwind
	.fnend
	.size	_Z18S9xSetPlaybackRatej, .-_Z18S9xSetPlaybackRatej
	.align	2
	.global	S9xInitSound
	.hidden	S9xInitSound
	.code	16
	.thumb_func
	.type	S9xInitSound, %function
S9xInitSound:
	.fnstart
.LFB50:
	.loc 1 1266 0
	.save	{r7, lr}
	push	{r7, lr}
.LCFI67:
	add	r7, sp, #0
.LCFI68:
	.loc 1 1267 0
	ldr	r3, .L427
	mov	r2, #0
	str	r2, [r3]
	.loc 1 1268 0
	ldr	r3, .L427
	mov	r2, #0
	strb	r2, [r3, #4]
	.loc 1 1269 0
	ldr	r2, .L427
	mov	r3, #1
	neg	r3, r3
	strb	r3, [r2, #6]
	.loc 1 1271 0
	mov	r0, #1
	bl	_Z13S9xResetSoundh
	.loc 1 1272 0
	mov	r0, #1
	bl	_ZL15S9xSetSoundMuteh
	.loc 1 1274 0
	mov	r3, #1
	.loc 1 1275 0
	mov	r0, r3
	mov	sp, r7
	@ sp needed for prologue
	pop	{r7, pc}
.L428:
	.align	2
.L427:
	.word	so
.LFE50:
	.cantunwind
	.fnend
	.size	S9xInitSound, .-S9xInitSound
	.data
	.align	2
	.type	_ZZ18S9xSetPlaybackRatejE5steps, %object
	.size	_ZZ18S9xSetPlaybackRatejE5steps, 40
_ZZ18S9xSetPlaybackRatejE5steps:
	.word	0
	.word	64
	.word	619
	.word	619
	.word	128
	.word	1
	.word	64
	.word	55
	.word	64
	.word	619
	.section	.debug_frame,"",%progbits
.Lframe0:
	.4byte	.LECIE0-.LSCIE0
.LSCIE0:
	.4byte	0xffffffff
	.byte	0x1
	.ascii	"\000"
	.uleb128 0x1
	.sleb128 -4
	.byte	0xe
	.byte	0xc
	.uleb128 0xd
	.uleb128 0x0
	.align	2
.LECIE0:
.LSFDE0:
	.4byte	.LEFDE0-.LASFDE0
.LASFDE0:
	.4byte	.Lframe0
	.4byte	.LFB0
	.4byte	.LFE0-.LFB0
	.byte	0x4
	.4byte	.LCFI0-.LFB0
	.byte	0xe
	.uleb128 0x8
	.byte	0x11
	.uleb128 0x7
	.sleb128 2
	.byte	0x11
	.uleb128 0xe
	.sleb128 1
	.byte	0x4
	.4byte	.LCFI1-.LCFI0
	.byte	0xe
	.uleb128 0x20
	.byte	0x4
	.4byte	.LCFI2-.LCFI1
	.byte	0xd
	.uleb128 0x7
	.align	2
.LEFDE0:
.LSFDE2:
	.4byte	.LEFDE2-.LASFDE2
.LASFDE2:
	.4byte	.Lframe0
	.4byte	.LFB9
	.4byte	.LFE9-.LFB9
	.byte	0x4
	.4byte	.LCFI3-.LFB9
	.byte	0xe
	.uleb128 0x8
	.byte	0x11
	.uleb128 0x7
	.sleb128 2
	.byte	0x11
	.uleb128 0xe
	.sleb128 1
	.byte	0x4
	.4byte	.LCFI4-.LCFI3
	.byte	0xe
	.uleb128 0x10
	.byte	0x4
	.4byte	.LCFI5-.LCFI4
	.byte	0xd
	.uleb128 0x7
	.align	2
.LEFDE2:
.LSFDE4:
	.4byte	.LEFDE4-.LASFDE4
.LASFDE4:
	.4byte	.Lframe0
	.4byte	.LFB10
	.4byte	.LFE10-.LFB10
	.byte	0x4
	.4byte	.LCFI6-.LFB10
	.byte	0xe
	.uleb128 0x8
	.byte	0x11
	.uleb128 0x7
	.sleb128 2
	.byte	0x11
	.uleb128 0xe
	.sleb128 1
	.byte	0x4
	.4byte	.LCFI7-.LCFI6
	.byte	0xe
	.uleb128 0x18
	.byte	0x4
	.4byte	.LCFI8-.LCFI7
	.byte	0xd
	.uleb128 0x7
	.align	2
.LEFDE4:
.LSFDE6:
	.4byte	.LEFDE6-.LASFDE6
.LASFDE6:
	.4byte	.Lframe0
	.4byte	.LFB11
	.4byte	.LFE11-.LFB11
	.byte	0x4
	.4byte	.LCFI9-.LFB11
	.byte	0xe
	.uleb128 0xc
	.byte	0x11
	.uleb128 0x4
	.sleb128 3
	.byte	0x11
	.uleb128 0x7
	.sleb128 2
	.byte	0x11
	.uleb128 0xe
	.sleb128 1
	.byte	0x4
	.4byte	.LCFI10-.LCFI9
	.byte	0xe
	.uleb128 0x20
	.byte	0x4
	.4byte	.LCFI11-.LCFI10
	.byte	0xd
	.uleb128 0x7
	.align	2
.LEFDE6:
.LSFDE8:
	.4byte	.LEFDE8-.LASFDE8
.LASFDE8:
	.4byte	.Lframe0
	.4byte	.LFB12
	.4byte	.LFE12-.LFB12
	.byte	0x4
	.4byte	.LCFI12-.LFB12
	.byte	0xe
	.uleb128 0x8
	.byte	0x11
	.uleb128 0x7
	.sleb128 2
	.byte	0x11
	.uleb128 0xe
	.sleb128 1
	.byte	0x4
	.4byte	.LCFI13-.LCFI12
	.byte	0xe
	.uleb128 0x10
	.byte	0x4
	.4byte	.LCFI14-.LCFI13
	.byte	0xd
	.uleb128 0x7
	.align	2
.LEFDE8:
.LSFDE10:
	.4byte	.LEFDE10-.LASFDE10
.LASFDE10:
	.4byte	.Lframe0
	.4byte	.LFB13
	.4byte	.LFE13-.LFB13
	.byte	0x4
	.4byte	.LCFI15-.LFB13
	.byte	0xe
	.uleb128 0x8
	.byte	0x11
	.uleb128 0x7
	.sleb128 2
	.byte	0x11
	.uleb128 0xe
	.sleb128 1
	.byte	0x4
	.4byte	.LCFI16-.LCFI15
	.byte	0xe
	.uleb128 0x10
	.byte	0x4
	.4byte	.LCFI17-.LCFI16
	.byte	0xd
	.uleb128 0x7
	.align	2
.LEFDE10:
.LSFDE12:
	.4byte	.LEFDE12-.LASFDE12
.LASFDE12:
	.4byte	.Lframe0
	.4byte	.LFB14
	.4byte	.LFE14-.LFB14
	.byte	0x4
	.4byte	.LCFI18-.LFB14
	.byte	0xe
	.uleb128 0x8
	.byte	0x11
	.uleb128 0x7
	.sleb128 2
	.byte	0x11
	.uleb128 0xe
	.sleb128 1
	.byte	0x4
	.4byte	.LCFI19-.LCFI18
	.byte	0xe
	.uleb128 0x18
	.byte	0x4
	.4byte	.LCFI20-.LCFI19
	.byte	0xd
	.uleb128 0x7
	.align	2
.LEFDE12:
.LSFDE14:
	.4byte	.LEFDE14-.LASFDE14
.LASFDE14:
	.4byte	.Lframe0
	.4byte	.LFB15
	.4byte	.LFE15-.LFB15
	.byte	0x4
	.4byte	.LCFI21-.LFB15
	.byte	0xe
	.uleb128 0x8
	.byte	0x11
	.uleb128 0x7
	.sleb128 2
	.byte	0x11
	.uleb128 0xe
	.sleb128 1
	.byte	0x4
	.4byte	.LCFI22-.LCFI21
	.byte	0xe
	.uleb128 0x10
	.byte	0x4
	.4byte	.LCFI23-.LCFI22
	.byte	0xd
	.uleb128 0x7
	.align	2
.LEFDE14:
.LSFDE16:
	.4byte	.LEFDE16-.LASFDE16
.LASFDE16:
	.4byte	.Lframe0
	.4byte	.LFB36
	.4byte	.LFE36-.LFB36
	.byte	0x4
	.4byte	.LCFI24-.LFB36
	.byte	0xe
	.uleb128 0x8
	.byte	0x11
	.uleb128 0x7
	.sleb128 2
	.byte	0x11
	.uleb128 0xe
	.sleb128 1
	.byte	0x4
	.4byte	.LCFI25-.LCFI24
	.byte	0xe
	.uleb128 0x10
	.byte	0x4
	.4byte	.LCFI26-.LCFI25
	.byte	0xd
	.uleb128 0x7
	.align	2
.LEFDE16:
.LSFDE18:
	.4byte	.LEFDE18-.LASFDE18
.LASFDE18:
	.4byte	.Lframe0
	.4byte	.LFB37
	.4byte	.LFE37-.LFB37
	.byte	0x4
	.4byte	.LCFI27-.LFB37
	.byte	0xe
	.uleb128 0x8
	.byte	0x11
	.uleb128 0x7
	.sleb128 2
	.byte	0x11
	.uleb128 0xe
	.sleb128 1
	.byte	0x4
	.4byte	.LCFI28-.LCFI27
	.byte	0xe
	.uleb128 0x10
	.byte	0x4
	.4byte	.LCFI29-.LCFI28
	.byte	0xd
	.uleb128 0x7
	.align	2
.LEFDE18:
.LSFDE20:
	.4byte	.LEFDE20-.LASFDE20
.LASFDE20:
	.4byte	.Lframe0
	.4byte	.LFB38
	.4byte	.LFE38-.LFB38
	.byte	0x4
	.4byte	.LCFI30-.LFB38
	.byte	0xe
	.uleb128 0xc
	.byte	0x11
	.uleb128 0x4
	.sleb128 3
	.byte	0x11
	.uleb128 0x7
	.sleb128 2
	.byte	0x11
	.uleb128 0xe
	.sleb128 1
	.byte	0x4
	.4byte	.LCFI31-.LCFI30
	.byte	0xe
	.uleb128 0x18
	.byte	0x4
	.4byte	.LCFI32-.LCFI31
	.byte	0xd
	.uleb128 0x7
	.align	2
.LEFDE20:
.LSFDE22:
	.4byte	.LEFDE22-.LASFDE22
.LASFDE22:
	.4byte	.Lframe0
	.4byte	.LFB39
	.4byte	.LFE39-.LFB39
	.byte	0x4
	.4byte	.LCFI33-.LFB39
	.byte	0xe
	.uleb128 0x8
	.byte	0x11
	.uleb128 0x7
	.sleb128 2
	.byte	0x11
	.uleb128 0xe
	.sleb128 1
	.byte	0x4
	.4byte	.LCFI34-.LCFI33
	.byte	0xe
	.uleb128 0x20
	.byte	0x4
	.4byte	.LCFI35-.LCFI34
	.byte	0xc
	.uleb128 0x7
	.uleb128 0x18
	.align	2
.LEFDE22:
.LSFDE24:
	.4byte	.LEFDE24-.LASFDE24
.LASFDE24:
	.4byte	.Lframe0
	.4byte	.LFB40
	.4byte	.LFE40-.LFB40
	.byte	0x4
	.4byte	.LCFI36-.LFB40
	.byte	0xe
	.uleb128 0xc
	.byte	0x11
	.uleb128 0x4
	.sleb128 3
	.byte	0x11
	.uleb128 0x7
	.sleb128 2
	.byte	0x11
	.uleb128 0xe
	.sleb128 1
	.byte	0x4
	.4byte	.LCFI37-.LCFI36
	.byte	0xe
	.uleb128 0x18
	.byte	0x4
	.4byte	.LCFI38-.LCFI37
	.byte	0xd
	.uleb128 0x7
	.align	2
.LEFDE24:
.LSFDE26:
	.4byte	.LEFDE26-.LASFDE26
.LASFDE26:
	.4byte	.Lframe0
	.4byte	.LFB41
	.4byte	.LFE41-.LFB41
	.byte	0x4
	.4byte	.LCFI39-.LFB41
	.byte	0xe
	.uleb128 0x8
	.byte	0x11
	.uleb128 0x7
	.sleb128 2
	.byte	0x11
	.uleb128 0xe
	.sleb128 1
	.byte	0x4
	.4byte	.LCFI40-.LCFI39
	.byte	0xe
	.uleb128 0x18
	.byte	0x4
	.4byte	.LCFI41-.LCFI40
	.byte	0xd
	.uleb128 0x7
	.align	2
.LEFDE26:
.LSFDE28:
	.4byte	.LEFDE28-.LASFDE28
.LASFDE28:
	.4byte	.Lframe0
	.4byte	.LFB42
	.4byte	.LFE42-.LFB42
	.byte	0x4
	.4byte	.LCFI42-.LFB42
	.byte	0xe
	.uleb128 0x8
	.byte	0x11
	.uleb128 0x7
	.sleb128 2
	.byte	0x11
	.uleb128 0xe
	.sleb128 1
	.byte	0x4
	.4byte	.LCFI43-.LCFI42
	.byte	0xe
	.uleb128 0x10
	.byte	0x4
	.4byte	.LCFI44-.LCFI43
	.byte	0xd
	.uleb128 0x7
	.align	2
.LEFDE28:
.LSFDE30:
	.4byte	.LEFDE30-.LASFDE30
.LASFDE30:
	.4byte	.Lframe0
	.4byte	.LFB43
	.4byte	.LFE43-.LFB43
	.byte	0x4
	.4byte	.LCFI45-.LFB43
	.byte	0xe
	.uleb128 0x8
	.byte	0x11
	.uleb128 0x7
	.sleb128 2
	.byte	0x11
	.uleb128 0xe
	.sleb128 1
	.byte	0x4
	.4byte	.LCFI46-.LCFI45
	.byte	0xe
	.uleb128 0x30
	.byte	0x4
	.4byte	.LCFI47-.LCFI46
	.byte	0xd
	.uleb128 0x7
	.align	2
.LEFDE30:
.LSFDE32:
	.4byte	.LEFDE32-.LASFDE32
.LASFDE32:
	.4byte	.Lframe0
	.4byte	.LFB44
	.4byte	.LFE44-.LFB44
	.byte	0x4
	.4byte	.LCFI48-.LFB44
	.byte	0xe
	.uleb128 0x8
	.byte	0x11
	.uleb128 0x7
	.sleb128 2
	.byte	0x11
	.uleb128 0xe
	.sleb128 1
	.byte	0x4
	.4byte	.LCFI49-.LCFI48
	.byte	0xe
	.uleb128 0x48
	.byte	0x4
	.4byte	.LCFI50-.LCFI49
	.byte	0xc
	.uleb128 0x7
	.uleb128 0x40
	.align	2
.LEFDE32:
.LSFDE34:
	.4byte	.LEFDE34-.LASFDE34
.LASFDE34:
	.4byte	.Lframe0
	.4byte	.LFB45
	.4byte	.LFE45-.LFB45
	.byte	0x4
	.4byte	.LCFI51-.LFB45
	.byte	0xe
	.uleb128 0x8
	.byte	0x11
	.uleb128 0x7
	.sleb128 2
	.byte	0x11
	.uleb128 0xe
	.sleb128 1
	.byte	0x4
	.4byte	.LCFI52-.LCFI51
	.byte	0xe
	.uleb128 0x48
	.byte	0x4
	.4byte	.LCFI53-.LCFI52
	.byte	0xc
	.uleb128 0x7
	.uleb128 0x40
	.align	2
.LEFDE34:
.LSFDE36:
	.4byte	.LEFDE36-.LASFDE36
.LASFDE36:
	.4byte	.Lframe0
	.4byte	.LFB46
	.4byte	.LFE46-.LFB46
	.byte	0x4
	.4byte	.LCFI54-.LFB46
	.byte	0xe
	.uleb128 0x8
	.byte	0x11
	.uleb128 0x7
	.sleb128 2
	.byte	0x11
	.uleb128 0xe
	.sleb128 1
	.byte	0x4
	.4byte	.LCFI55-.LCFI54
	.byte	0xe
	.uleb128 0x10
	.byte	0x4
	.4byte	.LCFI56-.LCFI55
	.byte	0xd
	.uleb128 0x7
	.align	2
.LEFDE36:
.LSFDE38:
	.4byte	.LEFDE38-.LASFDE38
.LASFDE38:
	.4byte	.Lframe0
	.4byte	.LFB47
	.4byte	.LFE47-.LFB47
	.byte	0x4
	.4byte	.LCFI57-.LFB47
	.byte	0xe
	.uleb128 0xc
	.byte	0x11
	.uleb128 0x4
	.sleb128 3
	.byte	0x11
	.uleb128 0x7
	.sleb128 2
	.byte	0x11
	.uleb128 0xe
	.sleb128 1
	.byte	0x4
	.4byte	.LCFI58-.LCFI57
	.byte	0xe
	.uleb128 0x60
	.byte	0x4
	.4byte	.LCFI59-.LCFI58
	.byte	0xd
	.uleb128 0x7
	.align	2
.LEFDE38:
.LSFDE40:
	.4byte	.LEFDE40-.LASFDE40
.LASFDE40:
	.4byte	.Lframe0
	.4byte	.LFB48
	.4byte	.LFE48-.LFB48
	.byte	0x4
	.4byte	.LCFI60-.LFB48
	.byte	0xe
	.uleb128 0xc
	.byte	0x11
	.uleb128 0x4
	.sleb128 3
	.byte	0x11
	.uleb128 0x7
	.sleb128 2
	.byte	0x11
	.uleb128 0xe
	.sleb128 1
	.byte	0x4
	.4byte	.LCFI61-.LCFI60
	.byte	0xe
	.uleb128 0x20
	.byte	0x4
	.4byte	.LCFI62-.LCFI61
	.byte	0xd
	.uleb128 0x7
	.align	2
.LEFDE40:
.LSFDE42:
	.4byte	.LEFDE42-.LASFDE42
.LASFDE42:
	.4byte	.Lframe0
	.4byte	.LFB49
	.4byte	.LFE49-.LFB49
	.byte	0x4
	.4byte	.LCFI63-.LFB49
	.byte	0xe
	.uleb128 0x14
	.byte	0x11
	.uleb128 0x4
	.sleb128 5
	.byte	0x11
	.uleb128 0x5
	.sleb128 4
	.byte	0x11
	.uleb128 0x6
	.sleb128 3
	.byte	0x11
	.uleb128 0x7
	.sleb128 2
	.byte	0x11
	.uleb128 0xe
	.sleb128 1
	.byte	0x4
	.4byte	.LCFI64-.LCFI63
	.byte	0xe
	.uleb128 0x1c
	.byte	0x11
	.uleb128 0x8
	.sleb128 7
	.byte	0x11
	.uleb128 0xa
	.sleb128 6
	.byte	0x4
	.4byte	.LCFI65-.LCFI64
	.byte	0xe
	.uleb128 0x120
	.byte	0x4
	.4byte	.LCFI66-.LCFI65
	.byte	0xd
	.uleb128 0x7
	.align	2
.LEFDE42:
.LSFDE44:
	.4byte	.LEFDE44-.LASFDE44
.LASFDE44:
	.4byte	.Lframe0
	.4byte	.LFB50
	.4byte	.LFE50-.LFB50
	.byte	0x4
	.4byte	.LCFI67-.LFB50
	.byte	0xe
	.uleb128 0x8
	.byte	0x11
	.uleb128 0x7
	.sleb128 2
	.byte	0x11
	.uleb128 0xe
	.sleb128 1
	.byte	0x4
	.4byte	.LCFI68-.LCFI67
	.byte	0xd
	.uleb128 0x7
	.align	2
.LEFDE44:
	.text
.Letext0: